
main.elf:     file format elf32-avr

Sections:
Idx Name          Size      VMA       LMA       File off  Algn
  0 .text         000009bc  00000000  00000000  00000094  2**1
                  CONTENTS, ALLOC, LOAD, READONLY, CODE
  1 .data         000000d6  00800060  000009bc  00000a50  2**0
                  CONTENTS, ALLOC, LOAD, DATA
  2 .bss          0000006c  00800136  00800136  00000b26  2**0
                  ALLOC
  3 .comment      00000030  00000000  00000000  00000b26  2**0
                  CONTENTS, READONLY
  4 .note.gnu.avr.deviceinfo 0000003c  00000000  00000000  00000b58  2**2
                  CONTENTS, READONLY, DEBUGGING
  5 .debug_info   0000052e  00000000  00000000  00000b94  2**0
                  CONTENTS, READONLY, DEBUGGING
  6 .debug_abbrev 000004e7  00000000  00000000  000010c2  2**0
                  CONTENTS, READONLY, DEBUGGING
  7 .debug_line   0000001a  00000000  00000000  000015a9  2**0
                  CONTENTS, READONLY, DEBUGGING
  8 .debug_str    000001af  00000000  00000000  000015c3  2**0
                  CONTENTS, READONLY, DEBUGGING
Contents of section .text:
 0000 0c943700 0c945400 0c945400 0c94c702  ..7...T...T.....
 0010 0c945400 0c945400 0c945400 0c945400  ..T...T...T...T.
 0020 0c945400 0c945400 0c945400 0c945400  ..T...T...T...T.
 0030 0c945400 0c945400 0c945400 0c945400  ..T...T...T...T.
 0040 0c945400 0c945400 0c945400 0c945600  ..T...T...T...V.
 0050 0c945400 2d414243 442d2a30 2d232d37  ..T.-ABCD-*0-#-7
 0060 382d392d 34352d36 2d31322d 33001124  8-9-45-6-12-3..$
 0070 1fbecfe5 d4e0debf cdbf11e0 a0e6b0e0  ................
 0080 ecebf9e0 02c00590 0d92a633 b107d9f7  ...........3....
 0090 21e0a6e3 b1e001c0 1d92a23a b207e1f7  !..........:....
 00a0 0e94c104 0c94dc04 0c944d02 1f920f92  ..........M.....
 00b0 0fb60f92 11242f93 3f934f93 5f936f93  .....$/.?.O._.o.
 00c0 7f938f93 9f93af93 bf93ef93 ff938091  ................
 00d0 910180fd c39a80ff c39892b3 80919101  ................
 00e0 82958072 9f7d892b 82bb8091 910190e0  ...r.}.+........
 00f0 95958795 95958795 80fd979a 80ff9798  ................
 0100 20916000 2f5f2093 60002111 0fc08091   .`./_ .`.!.....
 0110 9e018093 96018091 97018093 a1018091  ................
 0120 94018093 980187e0 80939101 80919601  ................
 0130 281305c0 80919101 8e7f8093 91018091  (...............
 0140 a1012813 05c08091 91018d7f 80939101  ..(.............
 0150 80919801 281305c0 80919101 8b7f8093  ....(...........
 0160 9101822f 6ae00e94 d0049111 9ac02223  .../j........."#
 0170 09f497c0 86b3e091 9001f0e0 e457fe4f  .............W.O
 0180 82958f70 9fe08927 808385b3 806f85bb  ...p...'.....o..
 0190 80919001 91e0980f 90939001 95b38c5f  ..............._
 01a0 21e030e0 01c0220f 8a95eaf7 892f8227  !.0..."....../.'
 01b0 85bb8091 90018430 08f473c0 10929001  .......0..s.....
 01c0 80910201 80930101 20910401 20930301  ........ ... ...
 01d0 80918d01 50918e01 40918f01 30918c01  ....P...@...0...
 01e0 e52fe695 e695e695 f0e0ee0f ff1f642f  ./............d/
 01f0 66956695 669593e0 699fb001 1124e62b  f.f.f...i....$.+
 0200 f72b982f 96959695 9695e92b 632f6695  .+./.......+c/f.
 0210 66956695 94e0699f b0011124 e62bf72b  f.f...i....$.+.+
 0220 ec5aff4f e491e093 0201682f 6770862f  .Z.O......h/gp./
 0230 90e041f0 2d3231f4 fc01e859 ff4fe491  ..A.-21....Y.O..
 0240 e0930401 5770a52f b0e041f0 2d3231f4  ....Wp./..A.-21.
 0250 fd01ed59 ff4fe491 e0930401 4770642f  ...Y.O......Gpd/
 0260 70e041f0 2d3231f4 fb01e25a ff4fe491  p.A.-21....Z.O..
 0270 e0930401 3770432f 50e041f0 2d3231f4  ....7pC/P.A.-21.
 0280 fa01e75a ff4fe491 e0930401 840f951f  ...Z.O..........
 0290 8a0f9b1f 860f971f 892b19f4 8de28093  .........+......
 02a0 04018091 3f018111 51c0e091 40018091  ....?...Q...@...
 02b0 3d01e111 05c09091 39019923 09f4e5c0  =.......9..#....
 02c0 8111e3c0 80913901 8111c8c0 80913801  ......9.......8.
 02d0 64e10e94 d004482f 50e04d5f 5f4f2e2f  d.....H/P.M__O./
 02e0 30e0682f 70e04617 570784f1 d901082e  0.h/p.F.W.......
 02f0 02c0b595 a7950a94 e2f7a0ff adc098e2  ................
 0300 899f9001 11242f59 3f4f3093 37012093  .....$/Y?O0.7. .
 0310 360194e1 90933901 21e030e0 01c0220f  6.....9.!.0...".
 0320 6a95eaf7 20952e23 20934001 98e09093  j... ..# .@.....
 0330 3f011092 9f018370 8093a001 e82ff0e0  ?......p...../..
 0340 e656fe4f 80818068 80933a01 80913f01  .V.O...h..:...?.
 0350 883081f4 82e08093 3f019398 e091a001  .0......?.......
 0360 f0e0e656 fe4f8081 90919f01 890f8068  ...V.O.........h
 0370 80933a01 80913f01 863051f4 82e08093  ..:...?..0Q.....
 0380 3f011092 9f011092 a0019398 80933a01  ?.............:.
 0390 80913f01 853039f4 82e08093 3f019398  ..?..09.....?...
 03a0 81e08093 3a018091 3f019eef 980f9230  ....:...?......0
 03b0 a8f48093 3e0185b3 807f85bb 95b32091  ....>......... .
 03c0 3f018091 3a012230 09f48295 8f70892b  ?...:."0.....p.+
 03d0 85bb81e0 80933f01 80933b01 80913f01  ......?...;...?.
 03e0 813051f4 80913b01 81508093 3b018111  .0Q...;..P..;...
 03f0 15c084e0 80933f01 80913f01 873071f4  ......?...?..0q.
 0400 80913b01 81508093 3b018111 14c08091  ..;..P..;.......
 0410 3e018230 e9f583e0 80933f01 80913f01  >..0......?...?.
 0420 843049f4 87e08093 3f019698 969a9698  .0I.....?.......
 0430 81e08093 3b01ff91 ef91bf91 af919f91  ....;...........
 0440 8f917f91 6f915f91 4f913f91 2f910f90  ....o._.O.?./...
 0450 0fbe0f90 1f901895 8f5f43cf 939a82e0  ........._C.....
 0460 80933f01 e0913601 f0913701 cf010196  ..?...6...7.....
 0470 90933701 80933601 80818093 3a018091  ..7...6.....:...
 0480 39018150 80933901 61cf8093 3f015ecf  9..P..9.a...?.^.
 0490 10923f01 10923d01 c1cf1f92 0f920fb6  ..?...=.........
 04a0 0f921124 0f900fbe 0f901f90 18950f93  ...$............
 04b0 1f93cf93 df93f82f e92f562f 34e1802f  ......././V/4../
 04c0 632f0e94 d004a82f a40fbb27 bb1f81e0  c/...../...'....
 04d0 90e001c0 880faa95 eaf7439f 402d1124  ..........C.@-.$
 04e0 af2fbe2f 652f70e0 f0e0e0e0 040f1127  ././e/p........'
 04f0 111f020f 111de617 f70739f4 80934001  ..........9...@.
 0500 df91cf91 1f910f91 08952d91 e801ce0f  ..........-.....
 0510 df1fcf59 df4f2883 3196edcf 0f93242f  ...Y.O(.1.....$/
 0520 062f40e0 64e10e94 57020f91 08958091  ./@.d...W.......
 0530 38018111 09c080e5 80933801 80ef8093  8.........8.....
 0540 40018091 38010895 10923801 8fe0f7cf  @...8.....8.....
 0550 90bd89b9 88e18ab9 8ee080bd 08955d9b  ..............].
 0560 fecf8cb9 08955f9b fecf8cb1 08955f9b  ......_......._.
 0570 08958cb1 fccfcf93 df93ec01 89918111  ................
 0580 03c0df91 cf910895 0e94af02 f7cf1f92  ................
 0590 0f920fb6 0f921124 2f933f93 4f935f93  .......$/.?.O._.
 05a0 6f937f93 8f939f93 af93bf93 ef93ff93  o...............
 05b0 349b0dc0 80914201 882309f4 9ac08430  4.....B..#.....0
 05c0 08f493c0 86b18065 86b91092 42018091  .......e....B...
 05d0 48019091 49018111 06c0892b 21f085e0  H...I......+!...
 05e0 91e00e94 bb022091 48013091 4901c901  ...... .H.0.I...
 05f0 8f709927 892b09f0 42c02115 310509f4  .p.'.+..B.!.1...
 0600 3ec04091 02014434 39f48091 01018434  >.@...D49......4
 0610 19f481e0 80939201 90919201 9923e9f0  .............#..
 0620 80910401 50910301 851771f0 8d3261f0  ....P.....q..2a.
 0630 50913c01 80536ae0 569f800d 11248093  P.<..Sj.V....$..
 0640 3c019f5f 90939201 80919201 853028f0  <.._.........0(.
 0650 10923c01 81e08093 92014134 81f48091  ..<.......A4....
 0660 01018134 61f48091 92018823 41f08091  ...4a......#A...
 0670 3c018093 9e011092 3c011092 92018091  <.......<.......
 0680 46019091 47018038 9c4079f4 10924701  F...G..8.@y...G.
 0690 10924601 80914501 91e0980f 492f4f70  ..F...E.....I/Op
 06a0 4a3008f0 93c09093 45012f5f 3f4f3093  J0......E./_?O0.
 06b0 49012093 48018091 46019091 47010196  I. .H...F...G...
 06c0 90934701 80934601 ff91ef91 bf91af91  ..G...F.........
 06d0 9f918f91 7f916f91 5f914f91 3f912f91  ......o._.O.?./.
 06e0 0f900fbe 0f901f90 18958f5f 80934201  ..........._..B.
 06f0 6ecf3091 93012091 4101e22f f0e0ee0f  n.0... .A../....
 0700 ff1f3111 22c021e0 20939301 e858fe4f  ..1.".!. ....X.O
 0710 80914e01 90914f01 20813181 821b930b  ..N...O. .1.....
 0720 90934f01 80934e01 24b135b1 31832083  ..O...N.$.5.1. .
 0730 820f931f 90934f01 80934e01 80919301  ......O...N.....
 0740 8f708064 87b981e0 d1cf3130 e1f422e0  .p.d......10..".
 0750 20939301 ec59fe4f 80914c01 90914d01   ....Y.O..L...M.
 0760 20813181 821b930b 90934d01 80934c01   .1.......M...L.
 0770 24b135b1 31832083 820f931f 90934d01  $.5.1. .......M.
 0780 80934c01 dbcf1092 9301e05b fe4f8091  ..L........[.O..
 0790 4a019091 4b014081 5181841b 950b9093  J...K.@.Q.......
 07a0 4b018093 4a0144b1 55b15183 4083840f  K...J.D.U.Q.@...
 07b0 951f9093 4b018093 4a012f5f 2a3018f4  ....K...J./_*0..
 07c0 20934101 bbcf1092 4101b8cf 8f5e807f   .A.....A....^..
 07d0 813518f4 80934501 68cf1092 45018091  .5....E.h...E...
 07e0 440191e0 980f492f 4f704a30 18f49093  D.....I/OpJ0....
 07f0 44015bcf 8f5e807f 813518f4 80934401  D.[..^...5....D.
 0800 54cf1092 44018091 430191e0 980f492f  T...D...C.....I/
 0810 4f704a30 18f49093 430147cf 8f5e807f  OpJ0....C.G..^..
 0820 80934301 42cf0197 08f40895 e6e6fee0  ..C.B...........
 0830 3197f1f7 0000f7cf 815008f4 089595e0  1........P......
 0840 9a95f1f7 f9cf95b3 907f95bb 95b38f70  ...............p
 0850 892b85bb 88ec0e94 1c049698 969a9698  .+..............
 0860 88ec0c94 1c04cf93 c82f9398 82958f70  ........./.....p
 0870 0e942304 8c2fcf91 0c942304 83e00e94  ..#../....#.....
 0880 230485e0 90e00e94 130483e0 0e942304  #.............#.
 0890 85e090e0 0e941304 83e00e94 230485e0  ............#...
 08a0 90e00e94 130482e0 0e942304 81e090e0  ..........#.....
 08b0 0e941304 88e20e94 330481e0 0e943304  ........3.....3.
 08c0 82e090e0 0e941304 8ce00e94 330486e0  ............3...
 08d0 0e943304 84e18093 990194e0 90939501  ..3.............
 08e0 eae9f1e0 108290e4 91838283 84e58383  ................
 08f0 82e00e94 330482e0 90e00e94 1304939a  ....3...........
 0900 84e00e94 23048fe4 0e942304 84e00e94  ....#.....#.....
 0910 23048be4 0e942304 80e590e0 0c941304  #.....#.........
 0920 f89480e8 8abb9fe0 97bb9fef 94bb9cef  ................
 0930 91bb90e7 9bbb90ef 98bb95bb 94e092bb  ................
 0940 90e497b9 97ec96b9 9ae093bf 9ee89cbf  ................
 0950 9be095bd 9fe893bd 92e899bf 88b91092  ................
 0960 96011092 9e0180e3 8093a101 80939701  ................
 0970 8aea8093 98018093 94010e94 3e047894  ............>.x.
 0980 08950e94 900400e0 20e040e0 6ce08ae2  ........ .@.l...
 0990 91e00e94 570284ef 91e00e94 1304fbcf  ....W...........
 09a0 991b79e0 04c0991f 961708f0 961b881f  ..y.............
 09b0 7a95c9f7 80950895 f894ffcf           z...........    
Contents of section .data:
 800060 ff200000 00000000 00000000 00000000  . ..............
 800070 00000000 00000000 00000000 00000000  ................
 800080 00000000 00000000 00000000 00000000  ................
 800090 00000000 00000000 00000000 00000000  ................
 8000a0 00000000 00000000 00000000 00000000  ................
 8000b0 00000000 00000000 00000000 00000000  ................
 8000c0 00000000 00000000 00000000 00000000  ................
 8000d0 00000000 00000000 00000000 00000000  ................
 8000e0 00000000 00000000 00000000 00000000  ................
 8000f0 00000000 00000000 00000000 00000000  ................
 800100 002d2d2d 2d496e74 65727275 70742120  .----Interrupt! 
 800110 28323536 202a2030 2e363235 6d73203d  (256 * 0.625ms =
 800120 20313630 6d73290a 0d00536f 72746572   160ms)...Sorter
 800130 2076302e 3100                         v0.1.          
Contents of section .comment:
 0000 4743433a 20284156 525f385f 6269745f  GCC: (AVR_8_bit_
 0010 474e555f 546f6f6c 63686169 6e5f332e  GNU_Toolchain_3.
 0020 372e305f 31373936 2920372e 332e3000  7.0_1796) 7.3.0.
Contents of section .note.gnu.avr.deviceinfo:
 0000 04000000 2b000000 01000000 41565200  ....+.......AVR.
 0010 00000000 00400000 60000000 00040000  .....@..`.......
 0020 00000000 00020000 08000000 01000000  ................
 0030 0061746d 65676131 36000000           .atmega16...    
Contents of section .debug_info:
 0000 2a050000 02000000 00000401 00000000  *...............
 0010 00000000 020f0000 00010803 17000000  ................
 0020 02070414 00000005 1b000000 ff010006  ................
 0030 20000000 00002200 00000105 03000081   .....".........
 0040 00072900 00000000 14000000 01050353  ..)............S
 0050 00800008 2f000000 00001400 00000105  ..../...........
 0060 03520080 00093500 00000000 14000000  .R....5.........
 0070 0105035c 0080000a 3a000000 00001400  ...\....:.......
 0080 00000105 03590080 000b4000 00000000  .....Y....@.....
 0090 14000000 01050358 0080000c 45000000  .......X....E...
 00a0 00001400 00000105 03500080 000d4b00  .........P....K.
 00b0 00000000 14000000 01050359 0080000e  ...........Y....
 00c0 51000000 00001400 00000105 03580080  Q............X..
 00d0 000f5600 00000000 14000000 0105034f  ..V............O
 00e0 00800010 5d000000 00001400 00000105  ....]...........
 00f0 034e0080 00116400 00000000 1b000000  .N....d.........
 0100 0105034c 00800012 6a000000 00001b00  ...L....j.......
 0110 00000105 034a0080 00137000 00000000  .....J....p.....
 0120 1b000000 01050348 00800014 76000000  .......H....v...
 0130 00001b00 00000105 03460080 00157b00  .........F....{.
 0140 00000000 14000000 0105035b 00800016  ...........[....
 0150 80000000 00001400 00000105 035a0080  .............Z..
 0160 00178500 00000000 14000000 01050355  ...............U
 0170 00800018 8b000000 00001400 00000105  ................
 0180 03540080 00199200 00000000 1b000000  .T..............
 0190 0105033e 0080001a 97000000 00001400  ...>............
 01a0 00000105 033d0080 001b9c00 00000000  .....=..........
 01b0 14000000 0105033c 0080001c a1000000  .......<........
 01c0 00001400 00000105 035f0080 001da600  ........._......
 01d0 00000000 1b000000 0105035d 0080001e  ...........]....
 01e0 a9000000 00001400 00000105 03550080  .............U..
 01f0 001faf00 00000000 14000000 01050354  ...............T
 0200 00800020 b6000000 00001400 00000105  ... ............
 0210 03510080 0021bd00 00000000 14000000  .Q...!..........
 0220 01050350 00800022 c3000000 00001400  ...P..."........
 0230 00000105 03590080 0023c900 00000000  .....Y...#......
 0240 14000000 01050358 00800024 ce000000  .......X...$....
 0250 00001400 00000105 03450080 0025d400  .........E...%..
 0260 00000000 14000000 01050344 00800026  ...........D...&
 0270 da000000 00001400 00000105 03430080  .............C..
 0280 0027df00 00000000 14000000 01050342  .'.............B
 0290 00800028 e4000000 00001400 00000105  ...(............
 02a0 03500080 0029ea00 00000000 14000000  .P...)..........
 02b0 0105032f 0080002a ef000000 00001400  .../...*........
 02c0 00000105 032e0080 002bf400 00000000  .........+......
 02d0 14000000 0105032d 0080002c f9000000  .......-...,....
 02e0 00001400 00000105 032c0080 002dfd00  .........,...-..
 02f0 00000000 14000000 0105032b 0080002e  ...........+....
 0300 03010000 00001400 00000105 032a0080  .............*..
 0310 002f0901 00000000 14000000 01050340  ./.............@
 0320 00800030 0f010000 00001400 00000105  ...0............
 0330 03400080 00311501 00000000 14000000  .@...1..........
 0340 01050329 00800032 1b010000 00001400  ...)...2........
 0350 00000105 03200080 00332001 00000000  ..... ...3 .....
 0360 14000000 01050356 00800034 25010000  .......V...4%...
 0370 00001400 00000105 03210080 00352a01  .........!...5*.
 0380 00000000 14000000 01050323 00800036  ...........#...6
 0390 2f010000 00001400 00000105 03220080  /............"..
 03a0 00373401 00000000 14000000 01050350  .74............P
 03b0 00800038 3a010000 00001400 00000105  ...8:...........
 03c0 03280080 00393f01 00000000 14000000  .(...9?.........
 03d0 01050327 0080003a 45010000 00001400  ...'...:E.......
 03e0 00000105 03260080 003b4c01 00000000  .....&...;L.....
 03f0 1b000000 01050324 0080003c 50010000  .......$...<P...
 0400 00001400 00000105 03500080 003d5601  .........P...=V.
 0410 00000000 14000000 01050351 0080003e  ...........Q...>
 0420 5b010000 00001400 00000105 03540080  [............T..
 0430 003f6201 00000000 14000000 01050357  .?b............W
 0440 00800040 69010000 00001400 00000105  ...@i...........
 0450 033b0080 00416f01 00000000 14000000  .;...Ao.........
 0460 0105033a 00800042 74010000 00001400  ...:...Bt.......
 0470 00000105 03390080 00437901 00000000  .....9...Cy.....
 0480 14000000 01050338 00800044 7f010000  .......8...D....
 0490 00001400 00000105 03370080 00458401  .........7...E..
 04a0 00000000 14000000 01050336 00800046  ...........6...F
 04b0 89010000 00001400 00000105 03350080  .............5..
 04c0 00478f01 00000000 14000000 01050334  .G.............4
 04d0 00800048 94010000 00001400 00000105  ...H............
 04e0 03330080 00499901 00000000 14000000  .3...I..........
 04f0 01050332 0080004a 9f010000 00001400  ...2...J........
 0500 00000105 03310080 004ba401 00000000  .....1...K......
 0510 14000000 01050330 0080004c a9010000  .......0...L....
 0520 00001400 00000105 03410080 0000      .........A....  
Contents of section .debug_abbrev:
 0000 01110125 0e100600 00022400 030e0b0b  ...%......$.....
 0010 3e0b0000 03240003 0e0b0b3e 0b000004  >....$.....>....
 0020 01014913 00000521 0049132f 05000006  ..I....!.I./....
 0030 3400030e 3a0b3b0b 49133f0c 020a0000  4...:.;.I.?.....
 0040 07340003 0e3a0b3b 0b49133f 0c020a00  .4...:.;.I.?....
 0050 00083400 030e3a0b 3b0b4913 3f0c020a  ..4...:.;.I.?...
 0060 00000934 00030e3a 0b3b0b49 133f0c02  ...4...:.;.I.?..
 0070 0a00000a 3400030e 3a0b3b0b 49133f0c  ....4...:.;.I.?.
 0080 020a0000 0b340003 0e3a0b3b 0b49133f  .....4...:.;.I.?
 0090 0c020a00 000c3400 030e3a0b 3b0b4913  ......4...:.;.I.
 00a0 3f0c020a 00000d34 00030e3a 0b3b0b49  ?......4...:.;.I
 00b0 133f0c02 0a00000e 3400030e 3a0b3b0b  .?......4...:.;.
 00c0 49133f0c 020a0000 0f340003 0e3a0b3b  I.?......4...:.;
 00d0 0b49133f 0c020a00 00103400 030e3a0b  .I.?......4...:.
 00e0 3b0b4913 3f0c020a 00001134 00030e3a  ;.I.?......4...:
 00f0 0b3b0b49 133f0c02 0a000012 3400030e  .;.I.?......4...
 0100 3a0b3b0b 49133f0c 020a0000 13340003  :.;.I.?......4..
 0110 0e3a0b3b 0b49133f 0c020a00 00143400  .:.;.I.?......4.
 0120 030e3a0b 3b0b4913 3f0c020a 00001534  ..:.;.I.?......4
 0130 00030e3a 0b3b0b49 133f0c02 0a000016  ...:.;.I.?......
 0140 3400030e 3a0b3b0b 49133f0c 020a0000  4...:.;.I.?.....
 0150 17340003 0e3a0b3b 0b49133f 0c020a00  .4...:.;.I.?....
 0160 00183400 030e3a0b 3b0b4913 3f0c020a  ..4...:.;.I.?...
 0170 00001934 00030e3a 0b3b0b49 133f0c02  ...4...:.;.I.?..
 0180 0a00001a 3400030e 3a0b3b0b 49133f0c  ....4...:.;.I.?.
 0190 020a0000 1b340003 0e3a0b3b 0b49133f  .....4...:.;.I.?
 01a0 0c020a00 001c3400 030e3a0b 3b0b4913  ......4...:.;.I.
 01b0 3f0c020a 00001d34 00030e3a 0b3b0b49  ?......4...:.;.I
 01c0 133f0c02 0a00001e 3400030e 3a0b3b0b  .?......4...:.;.
 01d0 49133f0c 020a0000 1f340003 0e3a0b3b  I.?......4...:.;
 01e0 0b49133f 0c020a00 00203400 030e3a0b  .I.?..... 4...:.
 01f0 3b0b4913 3f0c020a 00002134 00030e3a  ;.I.?.....!4...:
 0200 0b3b0b49 133f0c02 0a000022 3400030e  .;.I.?....."4...
 0210 3a0b3b0b 49133f0c 020a0000 23340003  :.;.I.?.....#4..
 0220 0e3a0b3b 0b49133f 0c020a00 00243400  .:.;.I.?.....$4.
 0230 030e3a0b 3b0b4913 3f0c020a 00002534  ..:.;.I.?.....%4
 0240 00030e3a 0b3b0b49 133f0c02 0a000026  ...:.;.I.?.....&
 0250 3400030e 3a0b3b0b 49133f0c 020a0000  4...:.;.I.?.....
 0260 27340003 0e3a0b3b 0b49133f 0c020a00  '4...:.;.I.?....
 0270 00283400 030e3a0b 3b0b4913 3f0c020a  .(4...:.;.I.?...
 0280 00002934 00030e3a 0b3b0b49 133f0c02  ..)4...:.;.I.?..
 0290 0a00002a 3400030e 3a0b3b0b 49133f0c  ...*4...:.;.I.?.
 02a0 020a0000 2b340003 0e3a0b3b 0b49133f  ....+4...:.;.I.?
 02b0 0c020a00 002c3400 030e3a0b 3b0b4913  .....,4...:.;.I.
 02c0 3f0c020a 00002d34 00030e3a 0b3b0b49  ?.....-4...:.;.I
 02d0 133f0c02 0a00002e 3400030e 3a0b3b0b  .?......4...:.;.
 02e0 49133f0c 020a0000 2f340003 0e3a0b3b  I.?...../4...:.;
 02f0 0b49133f 0c020a00 00303400 030e3a0b  .I.?.....04...:.
 0300 3b0b4913 3f0c020a 00003134 00030e3a  ;.I.?.....14...:
 0310 0b3b0b49 133f0c02 0a000032 3400030e  .;.I.?.....24...
 0320 3a0b3b0b 49133f0c 020a0000 33340003  :.;.I.?.....34..
 0330 0e3a0b3b 0b49133f 0c020a00 00343400  .:.;.I.?.....44.
 0340 030e3a0b 3b0b4913 3f0c020a 00003534  ..:.;.I.?.....54
 0350 00030e3a 0b3b0b49 133f0c02 0a000036  ...:.;.I.?.....6
 0360 3400030e 3a0b3b0b 49133f0c 020a0000  4...:.;.I.?.....
 0370 37340003 0e3a0b3b 0b49133f 0c020a00  74...:.;.I.?....
 0380 00383400 030e3a0b 3b0b4913 3f0c020a  .84...:.;.I.?...
 0390 00003934 00030e3a 0b3b0b49 133f0c02  ..94...:.;.I.?..
 03a0 0a00003a 3400030e 3a0b3b0b 49133f0c  ...:4...:.;.I.?.
 03b0 020a0000 3b340003 0e3a0b3b 0b49133f  ....;4...:.;.I.?
 03c0 0c020a00 003c3400 030e3a0b 3b0b4913  .....<4...:.;.I.
 03d0 3f0c020a 00003d34 00030e3a 0b3b0b49  ?.....=4...:.;.I
 03e0 133f0c02 0a00003e 3400030e 3a0b3b0b  .?.....>4...:.;.
 03f0 49133f0c 020a0000 3f340003 0e3a0b3b  I.?.....?4...:.;
 0400 0b49133f 0c020a00 00403400 030e3a0b  .I.?.....@4...:.
 0410 3b0b4913 3f0c020a 00004134 00030e3a  ;.I.?.....A4...:
 0420 0b3b0b49 133f0c02 0a000042 3400030e  .;.I.?.....B4...
 0430 3a0b3b0b 49133f0c 020a0000 43340003  :.;.I.?.....C4..
 0440 0e3a0b3b 0b49133f 0c020a00 00443400  .:.;.I.?.....D4.
 0450 030e3a0b 3b0b4913 3f0c020a 00004534  ..:.;.I.?.....E4
 0460 00030e3a 0b3b0b49 133f0c02 0a000046  ...:.;.I.?.....F
 0470 3400030e 3a0b3b0b 49133f0c 020a0000  4...:.;.I.?.....
 0480 47340003 0e3a0b3b 0b49133f 0c020a00  G4...:.;.I.?....
 0490 00483400 030e3a0b 3b0b4913 3f0c020a  .H4...:.;.I.?...
 04a0 00004934 00030e3a 0b3b0b49 133f0c02  ..I4...:.;.I.?..
 04b0 0a00004a 3400030e 3a0b3b0b 49133f0c  ...J4...:.;.I.?.
 04c0 020a0000 4b340003 0e3a0b3b 0b49133f  ....K4...:.;.I.?
 04d0 0c020a00 004c3400 030e3a0b 3b0b4913  .....L4...:.;.I.
 04e0 3f0c020a 000000                      ?......         
Contents of section .debug_line:
 0000 16000000 02001000 00000201 fb0e0a00  ................
 0010 01010101 00000001 0000               ..........      
Contents of section .debug_str:
 0000 6176722d 6c696263 20322e30 2e300075  avr-libc 2.0.0.u
 0010 696e7438 5f740075 696e7431 365f7400  int8_t.uint16_t.
 0020 5f5f6565 70726f6d 00544343 52300054  __eeprom.TCCR0.T
 0030 434e5430 004f4352 30005449 4d534b00  CNT0.OCR0.TIMSK.
 0040 54494652 00534649 4f520054 494d534b  TIFR.SFIOR.TIMSK
 0050 00544946 52005443 43523141 00544343  .TIFR.TCCR1A.TCC
 0060 52314200 54434e54 31004f43 52314100  R1B.TCNT1.OCR1A.
 0070 4f435231 42004943 52310047 49435200  OCR1B.ICR1.GICR.
 0080 47494652 004d4355 4352004d 43554353  GIFR.MCUCR.MCUCS
 0090 52004545 41520045 45445200 45454352  R.EEAR.EEDR.EECR
 00a0 00535245 47005350 004d4355 4352004d  .SREG.SP.MCUCR.M
 00b0 43554353 52004f53 4343414c 00534649  CUCSR.OSCCAL.SFI
 00c0 4f520054 494d534b 00544946 52005443  OR.TIMSK.TIFR.TC
 00d0 43523200 54434e54 32004f43 52320041  CR2.TCNT2.OCR2.A
 00e0 53535200 5346494f 52005350 44520053  SSR.SFIOR.SPDR.S
 00f0 50535200 53504352 00554452 00554353  PSR.SPCR.UDR.UCS
 0100 52410055 43535242 00554353 52430055  RA.UCSRB.UCSRC.U
 0110 42525248 00554252 524c0054 57425200  BRRH.UBRRL.TWBR.
 0120 54574352 00545753 52005457 44520054  TWCR.TWSR.TWDR.T
 0130 57415200 5346494f 52004143 53520041  WAR.SFIOR.ACSR.A
 0140 444d5558 00414443 53524100 41444300  DMUX.ADCSRA.ADC.
 0150 5346494f 52004f43 4452004d 43554353  SFIOR.OCDR.MCUCS
 0160 52005350 4d435352 00504f52 54410044  R.SPMCSR.PORTA.D
 0170 44524100 50494e41 00504f52 54420044  DRA.PINA.PORTB.D
 0180 44524200 50494e42 00504f52 54430044  DRB.PINB.PORTC.D
 0190 44524300 50494e43 00504f52 54440044  DRC.PINC.PORTD.D
 01a0 44524400 50494e44 00574454 435200    DRD.PIND.WDTCR. 

Disassembly of section .text:

00000000 <__vectors>:
   0:	0c 94 37 00 	jmp	0x6e	; 0x6e <__ctors_end>
   4:	0c 94 54 00 	jmp	0xa8	; 0xa8 <__bad_interrupt>
   8:	0c 94 54 00 	jmp	0xa8	; 0xa8 <__bad_interrupt>
   c:	0c 94 c7 02 	jmp	0x58e	; 0x58e <__vector_3>
  10:	0c 94 54 00 	jmp	0xa8	; 0xa8 <__bad_interrupt>
  14:	0c 94 54 00 	jmp	0xa8	; 0xa8 <__bad_interrupt>
  18:	0c 94 54 00 	jmp	0xa8	; 0xa8 <__bad_interrupt>
  1c:	0c 94 54 00 	jmp	0xa8	; 0xa8 <__bad_interrupt>
  20:	0c 94 54 00 	jmp	0xa8	; 0xa8 <__bad_interrupt>
  24:	0c 94 54 00 	jmp	0xa8	; 0xa8 <__bad_interrupt>
  28:	0c 94 54 00 	jmp	0xa8	; 0xa8 <__bad_interrupt>
  2c:	0c 94 54 00 	jmp	0xa8	; 0xa8 <__bad_interrupt>
  30:	0c 94 54 00 	jmp	0xa8	; 0xa8 <__bad_interrupt>
  34:	0c 94 54 00 	jmp	0xa8	; 0xa8 <__bad_interrupt>
  38:	0c 94 54 00 	jmp	0xa8	; 0xa8 <__bad_interrupt>
  3c:	0c 94 54 00 	jmp	0xa8	; 0xa8 <__bad_interrupt>
  40:	0c 94 54 00 	jmp	0xa8	; 0xa8 <__bad_interrupt>
  44:	0c 94 54 00 	jmp	0xa8	; 0xa8 <__bad_interrupt>
  48:	0c 94 54 00 	jmp	0xa8	; 0xa8 <__bad_interrupt>
  4c:	0c 94 56 00 	jmp	0xac	; 0xac <__vector_19>
  50:	0c 94 54 00 	jmp	0xa8	; 0xa8 <__bad_interrupt>

00000054 <__trampolines_end>:
  54:	2d 41       	sbci	r18, 0x1D	; 29
  56:	42 43       	sbci	r20, 0x32	; 50
  58:	44 2d       	Address 0x0000000000000058 is out of bounds.
.word	0xffff	; ????

00000059 <keypad_num3_keys>:
  59:	2d 2a 30 2d 23                                      -*0-#

0000005e <keypad_num2_keys>:
  5e:	2d 37 38 2d 39                                      -78-9

00000063 <keypad_num1_keys>:
  63:	2d 34 35 2d 36                                      -45-6

00000068 <keypad_num0_keys>:
  68:	2d 31 32 2d 33 00                                   -12-3.

0000006e <__ctors_end>:
  6e:	11 24       	eor	r1, r1
  70:	1f be       	out	0x3f, r1	; 63
  72:	cf e5       	ldi	r28, 0x5F	; 95
  74:	d4 e0       	ldi	r29, 0x04	; 4
  76:	de bf       	out	0x3e, r29	; 62
  78:	cd bf       	out	0x3d, r28	; 61

0000007a <__do_copy_data>:
  7a:	11 e0       	ldi	r17, 0x01	; 1
  7c:	a0 e6       	ldi	r26, 0x60	; 96
  7e:	b0 e0       	ldi	r27, 0x00	; 0
  80:	ec eb       	ldi	r30, 0xBC	; 188
  82:	f9 e0       	ldi	r31, 0x09	; 9
  84:	02 c0       	rjmp	.+4      	; 0x8a <__do_copy_data+0x10>
  86:	05 90       	lpm	r0, Z+
  88:	0d 92       	st	X+, r0
  8a:	a6 33       	cpi	r26, 0x36	; 54
  8c:	b1 07       	cpc	r27, r17
  8e:	d9 f7       	brne	.-10     	; 0x86 <__do_copy_data+0xc>

00000090 <__do_clear_bss>:
  90:	21 e0       	ldi	r18, 0x01	; 1
  92:	a6 e3       	ldi	r26, 0x36	; 54
  94:	b1 e0       	ldi	r27, 0x01	; 1
  96:	01 c0       	rjmp	.+2      	; 0x9a <.do_clear_bss_start>

00000098 <.do_clear_bss_loop>:
  98:	1d 92       	st	X+, r1

0000009a <.do_clear_bss_start>:
  9a:	a2 3a       	cpi	r26, 0xA2	; 162
  9c:	b2 07       	cpc	r27, r18
  9e:	e1 f7       	brne	.-8      	; 0x98 <.do_clear_bss_loop>
  a0:	0e 94 c1 04 	call	0x982	; 0x982 <main>
  a4:	0c 94 dc 04 	jmp	0x9b8	; 0x9b8 <_exit>

000000a8 <__bad_interrupt>:
  a8:	0c 94 4d 02 	jmp	0x49a	; 0x49a <__vector_default>

000000ac <__vector_19>:
  ac:	1f 92       	push	r1
  ae:	0f 92       	push	r0
  b0:	0f b6       	in	r0, 0x3f	; 63
  b2:	0f 92       	push	r0
  b4:	11 24       	eor	r1, r1
  b6:	2f 93       	push	r18
  b8:	3f 93       	push	r19
  ba:	4f 93       	push	r20
  bc:	5f 93       	push	r21
  be:	6f 93       	push	r22
  c0:	7f 93       	push	r23
  c2:	8f 93       	push	r24
  c4:	9f 93       	push	r25
  c6:	af 93       	push	r26
  c8:	bf 93       	push	r27
  ca:	ef 93       	push	r30
  cc:	ff 93       	push	r31
  ce:	80 91 91 01 	lds	r24, 0x0191	; 0x800191 <pwm_mask.2074>
  d2:	80 fd       	sbrc	r24, 0
  d4:	c3 9a       	sbi	0x18, 3	; 24
  d6:	80 ff       	sbrs	r24, 0
  d8:	c3 98       	cbi	0x18, 3	; 24
  da:	92 b3       	in	r25, 0x12	; 18
  dc:	80 91 91 01 	lds	r24, 0x0191	; 0x800191 <pwm_mask.2074>
  e0:	82 95       	swap	r24
  e2:	80 72       	andi	r24, 0x20	; 32
  e4:	9f 7d       	andi	r25, 0xDF	; 223
  e6:	89 2b       	or	r24, r25
  e8:	82 bb       	out	0x12, r24	; 18
  ea:	80 91 91 01 	lds	r24, 0x0191	; 0x800191 <pwm_mask.2074>
  ee:	90 e0       	ldi	r25, 0x00	; 0
  f0:	95 95       	asr	r25
  f2:	87 95       	ror	r24
  f4:	95 95       	asr	r25
  f6:	87 95       	ror	r24
  f8:	80 fd       	sbrc	r24, 0
  fa:	97 9a       	sbi	0x12, 7	; 18
  fc:	80 ff       	sbrs	r24, 0
  fe:	97 98       	cbi	0x12, 7	; 18
 100:	20 91 60 00 	lds	r18, 0x0060	; 0x800060 <__DATA_REGION_ORIGIN__>
 104:	2f 5f       	subi	r18, 0xFF	; 255
 106:	20 93 60 00 	sts	0x0060, r18	; 0x800060 <__DATA_REGION_ORIGIN__>
 10a:	21 11       	cpse	r18, r1
 10c:	0f c0       	rjmp	.+30     	; 0x12c <__vector_19+0x80>
 10e:	80 91 9e 01 	lds	r24, 0x019E	; 0x80019e <compbuff_PWM0>
 112:	80 93 96 01 	sts	0x0196, r24	; 0x800196 <compare_PWM0>
 116:	80 91 97 01 	lds	r24, 0x0197	; 0x800197 <compbuff_PWM1>
 11a:	80 93 a1 01 	sts	0x01A1, r24	; 0x8001a1 <compare_PWM1>
 11e:	80 91 94 01 	lds	r24, 0x0194	; 0x800194 <compbuff_PWM2>
 122:	80 93 98 01 	sts	0x0198, r24	; 0x800198 <compare_PWM2>
 126:	87 e0       	ldi	r24, 0x07	; 7
 128:	80 93 91 01 	sts	0x0191, r24	; 0x800191 <pwm_mask.2074>
 12c:	80 91 96 01 	lds	r24, 0x0196	; 0x800196 <compare_PWM0>
 130:	28 13       	cpse	r18, r24
 132:	05 c0       	rjmp	.+10     	; 0x13e <__vector_19+0x92>
 134:	80 91 91 01 	lds	r24, 0x0191	; 0x800191 <pwm_mask.2074>
 138:	8e 7f       	andi	r24, 0xFE	; 254
 13a:	80 93 91 01 	sts	0x0191, r24	; 0x800191 <pwm_mask.2074>
 13e:	80 91 a1 01 	lds	r24, 0x01A1	; 0x8001a1 <compare_PWM1>
 142:	28 13       	cpse	r18, r24
 144:	05 c0       	rjmp	.+10     	; 0x150 <__vector_19+0xa4>
 146:	80 91 91 01 	lds	r24, 0x0191	; 0x800191 <pwm_mask.2074>
 14a:	8d 7f       	andi	r24, 0xFD	; 253
 14c:	80 93 91 01 	sts	0x0191, r24	; 0x800191 <pwm_mask.2074>
 150:	80 91 98 01 	lds	r24, 0x0198	; 0x800198 <compare_PWM2>
 154:	28 13       	cpse	r18, r24
 156:	05 c0       	rjmp	.+10     	; 0x162 <__vector_19+0xb6>
 158:	80 91 91 01 	lds	r24, 0x0191	; 0x800191 <pwm_mask.2074>
 15c:	8b 7f       	andi	r24, 0xFB	; 251
 15e:	80 93 91 01 	sts	0x0191, r24	; 0x800191 <pwm_mask.2074>
 162:	82 2f       	mov	r24, r18
 164:	6a e0       	ldi	r22, 0x0A	; 10
 166:	0e 94 d0 04 	call	0x9a0	; 0x9a0 <__udivmodqi4>
 16a:	91 11       	cpse	r25, r1
 16c:	9a c0       	rjmp	.+308    	; 0x2a2 <__EEPROM_REGION_LENGTH__+0xa2>
 16e:	22 23       	and	r18, r18
 170:	09 f4       	brne	.+2      	; 0x174 <__vector_19+0xc8>
 172:	97 c0       	rjmp	.+302    	; 0x2a2 <__EEPROM_REGION_LENGTH__+0xa2>
 174:	86 b3       	in	r24, 0x16	; 22
 176:	e0 91 90 01 	lds	r30, 0x0190	; 0x800190 <key_scan_row.2072>
 17a:	f0 e0       	ldi	r31, 0x00	; 0
 17c:	e4 57       	subi	r30, 0x74	; 116
 17e:	fe 4f       	sbci	r31, 0xFE	; 254
 180:	82 95       	swap	r24
 182:	8f 70       	andi	r24, 0x0F	; 15
 184:	9f e0       	ldi	r25, 0x0F	; 15
 186:	89 27       	eor	r24, r25
 188:	80 83       	st	Z, r24
 18a:	85 b3       	in	r24, 0x15	; 21
 18c:	80 6f       	ori	r24, 0xF0	; 240
 18e:	85 bb       	out	0x15, r24	; 21
 190:	80 91 90 01 	lds	r24, 0x0190	; 0x800190 <key_scan_row.2072>
 194:	91 e0       	ldi	r25, 0x01	; 1
 196:	98 0f       	add	r25, r24
 198:	90 93 90 01 	sts	0x0190, r25	; 0x800190 <key_scan_row.2072>
 19c:	95 b3       	in	r25, 0x15	; 21
 19e:	8c 5f       	subi	r24, 0xFC	; 252
 1a0:	21 e0       	ldi	r18, 0x01	; 1
 1a2:	30 e0       	ldi	r19, 0x00	; 0
 1a4:	01 c0       	rjmp	.+2      	; 0x1a8 <__vector_19+0xfc>
 1a6:	22 0f       	add	r18, r18
 1a8:	8a 95       	dec	r24
 1aa:	ea f7       	brpl	.-6      	; 0x1a6 <__vector_19+0xfa>
 1ac:	89 2f       	mov	r24, r25
 1ae:	82 27       	eor	r24, r18
 1b0:	85 bb       	out	0x15, r24	; 21
 1b2:	80 91 90 01 	lds	r24, 0x0190	; 0x800190 <key_scan_row.2072>
 1b6:	84 30       	cpi	r24, 0x04	; 4
 1b8:	08 f4       	brcc	.+2      	; 0x1bc <__vector_19+0x110>
 1ba:	73 c0       	rjmp	.+230    	; 0x2a2 <__EEPROM_REGION_LENGTH__+0xa2>
 1bc:	10 92 90 01 	sts	0x0190, r1	; 0x800190 <key_scan_row.2072>
 1c0:	80 91 02 01 	lds	r24, 0x0102	; 0x800102 <actual_func_key>
 1c4:	80 93 01 01 	sts	0x0101, r24	; 0x800101 <last_func_key>
 1c8:	20 91 04 01 	lds	r18, 0x0104	; 0x800104 <actual_num_key>
 1cc:	20 93 03 01 	sts	0x0103, r18	; 0x800103 <last_num_key>
 1d0:	80 91 8d 01 	lds	r24, 0x018D	; 0x80018d <key_col_state.2073+0x1>
 1d4:	50 91 8e 01 	lds	r21, 0x018E	; 0x80018e <key_col_state.2073+0x2>
 1d8:	40 91 8f 01 	lds	r20, 0x018F	; 0x80018f <key_col_state.2073+0x3>
 1dc:	30 91 8c 01 	lds	r19, 0x018C	; 0x80018c <key_col_state.2073>
 1e0:	e5 2f       	mov	r30, r21
 1e2:	e6 95       	lsr	r30
 1e4:	e6 95       	lsr	r30
 1e6:	e6 95       	lsr	r30
 1e8:	f0 e0       	ldi	r31, 0x00	; 0
 1ea:	ee 0f       	add	r30, r30
 1ec:	ff 1f       	adc	r31, r31
 1ee:	64 2f       	mov	r22, r20
 1f0:	66 95       	lsr	r22
 1f2:	66 95       	lsr	r22
 1f4:	66 95       	lsr	r22
 1f6:	93 e0       	ldi	r25, 0x03	; 3
 1f8:	69 9f       	mul	r22, r25
 1fa:	b0 01       	movw	r22, r0
 1fc:	11 24       	eor	r1, r1
 1fe:	e6 2b       	or	r30, r22
 200:	f7 2b       	or	r31, r23
 202:	98 2f       	mov	r25, r24
 204:	96 95       	lsr	r25
 206:	96 95       	lsr	r25
 208:	96 95       	lsr	r25
 20a:	e9 2b       	or	r30, r25
 20c:	63 2f       	mov	r22, r19
 20e:	66 95       	lsr	r22
 210:	66 95       	lsr	r22
 212:	66 95       	lsr	r22
 214:	94 e0       	ldi	r25, 0x04	; 4
 216:	69 9f       	mul	r22, r25
 218:	b0 01       	movw	r22, r0
 21a:	11 24       	eor	r1, r1
 21c:	e6 2b       	or	r30, r22
 21e:	f7 2b       	or	r31, r23
 220:	ec 5a       	subi	r30, 0xAC	; 172
 222:	ff 4f       	sbci	r31, 0xFF	; 255
 224:	e4 91       	lpm	r30, Z
 226:	e0 93 02 01 	sts	0x0102, r30	; 0x800102 <actual_func_key>
 22a:	68 2f       	mov	r22, r24
 22c:	67 70       	andi	r22, 0x07	; 7
 22e:	86 2f       	mov	r24, r22
 230:	90 e0       	ldi	r25, 0x00	; 0
 232:	41 f0       	breq	.+16     	; 0x244 <__EEPROM_REGION_LENGTH__+0x44>
 234:	2d 32       	cpi	r18, 0x2D	; 45
 236:	31 f4       	brne	.+12     	; 0x244 <__EEPROM_REGION_LENGTH__+0x44>
 238:	fc 01       	movw	r30, r24
 23a:	e8 59       	subi	r30, 0x98	; 152
 23c:	ff 4f       	sbci	r31, 0xFF	; 255
 23e:	e4 91       	lpm	r30, Z
 240:	e0 93 04 01 	sts	0x0104, r30	; 0x800104 <actual_num_key>
 244:	57 70       	andi	r21, 0x07	; 7
 246:	a5 2f       	mov	r26, r21
 248:	b0 e0       	ldi	r27, 0x00	; 0
 24a:	41 f0       	breq	.+16     	; 0x25c <__EEPROM_REGION_LENGTH__+0x5c>
 24c:	2d 32       	cpi	r18, 0x2D	; 45
 24e:	31 f4       	brne	.+12     	; 0x25c <__EEPROM_REGION_LENGTH__+0x5c>
 250:	fd 01       	movw	r30, r26
 252:	ed 59       	subi	r30, 0x9D	; 157
 254:	ff 4f       	sbci	r31, 0xFF	; 255
 256:	e4 91       	lpm	r30, Z
 258:	e0 93 04 01 	sts	0x0104, r30	; 0x800104 <actual_num_key>
 25c:	47 70       	andi	r20, 0x07	; 7
 25e:	64 2f       	mov	r22, r20
 260:	70 e0       	ldi	r23, 0x00	; 0
 262:	41 f0       	breq	.+16     	; 0x274 <__EEPROM_REGION_LENGTH__+0x74>
 264:	2d 32       	cpi	r18, 0x2D	; 45
 266:	31 f4       	brne	.+12     	; 0x274 <__EEPROM_REGION_LENGTH__+0x74>
 268:	fb 01       	movw	r30, r22
 26a:	e2 5a       	subi	r30, 0xA2	; 162
 26c:	ff 4f       	sbci	r31, 0xFF	; 255
 26e:	e4 91       	lpm	r30, Z
 270:	e0 93 04 01 	sts	0x0104, r30	; 0x800104 <actual_num_key>
 274:	37 70       	andi	r19, 0x07	; 7
 276:	43 2f       	mov	r20, r19
 278:	50 e0       	ldi	r21, 0x00	; 0
 27a:	41 f0       	breq	.+16     	; 0x28c <__EEPROM_REGION_LENGTH__+0x8c>
 27c:	2d 32       	cpi	r18, 0x2D	; 45
 27e:	31 f4       	brne	.+12     	; 0x28c <__EEPROM_REGION_LENGTH__+0x8c>
 280:	fa 01       	movw	r30, r20
 282:	e7 5a       	subi	r30, 0xA7	; 167
 284:	ff 4f       	sbci	r31, 0xFF	; 255
 286:	e4 91       	lpm	r30, Z
 288:	e0 93 04 01 	sts	0x0104, r30	; 0x800104 <actual_num_key>
 28c:	84 0f       	add	r24, r20
 28e:	95 1f       	adc	r25, r21
 290:	8a 0f       	add	r24, r26
 292:	9b 1f       	adc	r25, r27
 294:	86 0f       	add	r24, r22
 296:	97 1f       	adc	r25, r23
 298:	89 2b       	or	r24, r25
 29a:	19 f4       	brne	.+6      	; 0x2a2 <__EEPROM_REGION_LENGTH__+0xa2>
 29c:	8d e2       	ldi	r24, 0x2D	; 45
 29e:	80 93 04 01 	sts	0x0104, r24	; 0x800104 <actual_num_key>
 2a2:	80 91 3f 01 	lds	r24, 0x013F	; 0x80013f <disp_state>
 2a6:	81 11       	cpse	r24, r1
 2a8:	51 c0       	rjmp	.+162    	; 0x34c <__EEPROM_REGION_LENGTH__+0x14c>
 2aa:	e0 91 40 01 	lds	r30, 0x0140	; 0x800140 <disp_buffers_dirty>
 2ae:	80 91 3d 01 	lds	r24, 0x013D	; 0x80013d <disp_operation>
 2b2:	e1 11       	cpse	r30, r1
 2b4:	05 c0       	rjmp	.+10     	; 0x2c0 <__EEPROM_REGION_LENGTH__+0xc0>
 2b6:	90 91 39 01 	lds	r25, 0x0139	; 0x800139 <disp_column_counter>
 2ba:	99 23       	and	r25, r25
 2bc:	09 f4       	brne	.+2      	; 0x2c0 <__EEPROM_REGION_LENGTH__+0xc0>
 2be:	e5 c0       	rjmp	.+458    	; 0x48a <__stack+0x2b>
 2c0:	81 11       	cpse	r24, r1
 2c2:	e3 c0       	rjmp	.+454    	; 0x48a <__stack+0x2b>
 2c4:	80 91 39 01 	lds	r24, 0x0139	; 0x800139 <disp_column_counter>
 2c8:	81 11       	cpse	r24, r1
 2ca:	c8 c0       	rjmp	.+400    	; 0x45c <__DATA_REGION_LENGTH__+0x5c>
 2cc:	80 91 38 01 	lds	r24, 0x0138	; 0x800138 <disp_active_buffer>
 2d0:	64 e1       	ldi	r22, 0x14	; 20
 2d2:	0e 94 d0 04 	call	0x9a0	; 0x9a0 <__udivmodqi4>
 2d6:	48 2f       	mov	r20, r24
 2d8:	50 e0       	ldi	r21, 0x00	; 0
 2da:	4d 5f       	subi	r20, 0xFD	; 253
 2dc:	5f 4f       	sbci	r21, 0xFF	; 255
 2de:	2e 2f       	mov	r18, r30
 2e0:	30 e0       	ldi	r19, 0x00	; 0
 2e2:	68 2f       	mov	r22, r24
 2e4:	70 e0       	ldi	r23, 0x00	; 0
 2e6:	46 17       	cp	r20, r22
 2e8:	57 07       	cpc	r21, r23
 2ea:	84 f1       	brlt	.+96     	; 0x34c <__EEPROM_REGION_LENGTH__+0x14c>
 2ec:	d9 01       	movw	r26, r18
 2ee:	08 2e       	mov	r0, r24
 2f0:	02 c0       	rjmp	.+4      	; 0x2f6 <__EEPROM_REGION_LENGTH__+0xf6>
 2f2:	b5 95       	asr	r27
 2f4:	a7 95       	ror	r26
 2f6:	0a 94       	dec	r0
 2f8:	e2 f7       	brpl	.-8      	; 0x2f2 <__EEPROM_REGION_LENGTH__+0xf2>
 2fa:	a0 ff       	sbrs	r26, 0
 2fc:	ad c0       	rjmp	.+346    	; 0x458 <__DATA_REGION_LENGTH__+0x58>
 2fe:	98 e2       	ldi	r25, 0x28	; 40
 300:	89 9f       	mul	r24, r25
 302:	90 01       	movw	r18, r0
 304:	11 24       	eor	r1, r1
 306:	2f 59       	subi	r18, 0x9F	; 159
 308:	3f 4f       	sbci	r19, 0xFF	; 255
 30a:	30 93 37 01 	sts	0x0137, r19	; 0x800137 <__data_end+0x1>
 30e:	20 93 36 01 	sts	0x0136, r18	; 0x800136 <__data_end>
 312:	94 e1       	ldi	r25, 0x14	; 20
 314:	90 93 39 01 	sts	0x0139, r25	; 0x800139 <disp_column_counter>
 318:	21 e0       	ldi	r18, 0x01	; 1
 31a:	30 e0       	ldi	r19, 0x00	; 0
 31c:	01 c0       	rjmp	.+2      	; 0x320 <__EEPROM_REGION_LENGTH__+0x120>
 31e:	22 0f       	add	r18, r18
 320:	6a 95       	dec	r22
 322:	ea f7       	brpl	.-6      	; 0x31e <__EEPROM_REGION_LENGTH__+0x11e>
 324:	20 95       	com	r18
 326:	2e 23       	and	r18, r30
 328:	20 93 40 01 	sts	0x0140, r18	; 0x800140 <disp_buffers_dirty>
 32c:	98 e0       	ldi	r25, 0x08	; 8
 32e:	90 93 3f 01 	sts	0x013F, r25	; 0x80013f <disp_state>
 332:	10 92 9f 01 	sts	0x019F, r1	; 0x80019f <currentCol>
 336:	83 70       	andi	r24, 0x03	; 3
 338:	80 93 a0 01 	sts	0x01A0, r24	; 0x8001a0 <currentRow>
 33c:	e8 2f       	mov	r30, r24
 33e:	f0 e0       	ldi	r31, 0x00	; 0
 340:	e6 56       	subi	r30, 0x66	; 102
 342:	fe 4f       	sbci	r31, 0xFE	; 254
 344:	80 81       	ld	r24, Z
 346:	80 68       	ori	r24, 0x80	; 128
 348:	80 93 3a 01 	sts	0x013A, r24	; 0x80013a <disp_temp_data>
 34c:	80 91 3f 01 	lds	r24, 0x013F	; 0x80013f <disp_state>
 350:	88 30       	cpi	r24, 0x08	; 8
 352:	81 f4       	brne	.+32     	; 0x374 <__EEPROM_REGION_LENGTH__+0x174>
 354:	82 e0       	ldi	r24, 0x02	; 2
 356:	80 93 3f 01 	sts	0x013F, r24	; 0x80013f <disp_state>
 35a:	93 98       	cbi	0x12, 3	; 18
 35c:	e0 91 a0 01 	lds	r30, 0x01A0	; 0x8001a0 <currentRow>
 360:	f0 e0       	ldi	r31, 0x00	; 0
 362:	e6 56       	subi	r30, 0x66	; 102
 364:	fe 4f       	sbci	r31, 0xFE	; 254
 366:	80 81       	ld	r24, Z
 368:	90 91 9f 01 	lds	r25, 0x019F	; 0x80019f <currentCol>
 36c:	89 0f       	add	r24, r25
 36e:	80 68       	ori	r24, 0x80	; 128
 370:	80 93 3a 01 	sts	0x013A, r24	; 0x80013a <disp_temp_data>
 374:	80 91 3f 01 	lds	r24, 0x013F	; 0x80013f <disp_state>
 378:	86 30       	cpi	r24, 0x06	; 6
 37a:	51 f4       	brne	.+20     	; 0x390 <__EEPROM_REGION_LENGTH__+0x190>
 37c:	82 e0       	ldi	r24, 0x02	; 2
 37e:	80 93 3f 01 	sts	0x013F, r24	; 0x80013f <disp_state>
 382:	10 92 9f 01 	sts	0x019F, r1	; 0x80019f <currentCol>
 386:	10 92 a0 01 	sts	0x01A0, r1	; 0x8001a0 <currentRow>
 38a:	93 98       	cbi	0x12, 3	; 18
 38c:	80 93 3a 01 	sts	0x013A, r24	; 0x80013a <disp_temp_data>
 390:	80 91 3f 01 	lds	r24, 0x013F	; 0x80013f <disp_state>
 394:	85 30       	cpi	r24, 0x05	; 5
 396:	39 f4       	brne	.+14     	; 0x3a6 <__EEPROM_REGION_LENGTH__+0x1a6>
 398:	82 e0       	ldi	r24, 0x02	; 2
 39a:	80 93 3f 01 	sts	0x013F, r24	; 0x80013f <disp_state>
 39e:	93 98       	cbi	0x12, 3	; 18
 3a0:	81 e0       	ldi	r24, 0x01	; 1
 3a2:	80 93 3a 01 	sts	0x013A, r24	; 0x80013a <disp_temp_data>
 3a6:	80 91 3f 01 	lds	r24, 0x013F	; 0x80013f <disp_state>
 3aa:	9e ef       	ldi	r25, 0xFE	; 254
 3ac:	98 0f       	add	r25, r24
 3ae:	92 30       	cpi	r25, 0x02	; 2
 3b0:	a8 f4       	brcc	.+42     	; 0x3dc <__EEPROM_REGION_LENGTH__+0x1dc>
 3b2:	80 93 3e 01 	sts	0x013E, r24	; 0x80013e <disp_last_state>
 3b6:	85 b3       	in	r24, 0x15	; 21
 3b8:	80 7f       	andi	r24, 0xF0	; 240
 3ba:	85 bb       	out	0x15, r24	; 21
 3bc:	95 b3       	in	r25, 0x15	; 21
 3be:	20 91 3f 01 	lds	r18, 0x013F	; 0x80013f <disp_state>
 3c2:	80 91 3a 01 	lds	r24, 0x013A	; 0x80013a <disp_temp_data>
 3c6:	22 30       	cpi	r18, 0x02	; 2
 3c8:	09 f4       	brne	.+2      	; 0x3cc <__EEPROM_REGION_LENGTH__+0x1cc>
 3ca:	82 95       	swap	r24
 3cc:	8f 70       	andi	r24, 0x0F	; 15
 3ce:	89 2b       	or	r24, r25
 3d0:	85 bb       	out	0x15, r24	; 21
 3d2:	81 e0       	ldi	r24, 0x01	; 1
 3d4:	80 93 3f 01 	sts	0x013F, r24	; 0x80013f <disp_state>
 3d8:	80 93 3b 01 	sts	0x013B, r24	; 0x80013b <disp_delay>
 3dc:	80 91 3f 01 	lds	r24, 0x013F	; 0x80013f <disp_state>
 3e0:	81 30       	cpi	r24, 0x01	; 1
 3e2:	51 f4       	brne	.+20     	; 0x3f8 <__EEPROM_REGION_LENGTH__+0x1f8>
 3e4:	80 91 3b 01 	lds	r24, 0x013B	; 0x80013b <disp_delay>
 3e8:	81 50       	subi	r24, 0x01	; 1
 3ea:	80 93 3b 01 	sts	0x013B, r24	; 0x80013b <disp_delay>
 3ee:	81 11       	cpse	r24, r1
 3f0:	15 c0       	rjmp	.+42     	; 0x41c <__DATA_REGION_LENGTH__+0x1c>
 3f2:	84 e0       	ldi	r24, 0x04	; 4
 3f4:	80 93 3f 01 	sts	0x013F, r24	; 0x80013f <disp_state>
 3f8:	80 91 3f 01 	lds	r24, 0x013F	; 0x80013f <disp_state>
 3fc:	87 30       	cpi	r24, 0x07	; 7
 3fe:	71 f4       	brne	.+28     	; 0x41c <__DATA_REGION_LENGTH__+0x1c>
 400:	80 91 3b 01 	lds	r24, 0x013B	; 0x80013b <disp_delay>
 404:	81 50       	subi	r24, 0x01	; 1
 406:	80 93 3b 01 	sts	0x013B, r24	; 0x80013b <disp_delay>
 40a:	81 11       	cpse	r24, r1
 40c:	14 c0       	rjmp	.+40     	; 0x436 <__DATA_REGION_LENGTH__+0x36>
 40e:	80 91 3e 01 	lds	r24, 0x013E	; 0x80013e <disp_last_state>
 412:	82 30       	cpi	r24, 0x02	; 2
 414:	e9 f5       	brne	.+122    	; 0x490 <__stack+0x31>
 416:	83 e0       	ldi	r24, 0x03	; 3
 418:	80 93 3f 01 	sts	0x013F, r24	; 0x80013f <disp_state>
 41c:	80 91 3f 01 	lds	r24, 0x013F	; 0x80013f <disp_state>
 420:	84 30       	cpi	r24, 0x04	; 4
 422:	49 f4       	brne	.+18     	; 0x436 <__DATA_REGION_LENGTH__+0x36>
 424:	87 e0       	ldi	r24, 0x07	; 7
 426:	80 93 3f 01 	sts	0x013F, r24	; 0x80013f <disp_state>
 42a:	96 98       	cbi	0x12, 6	; 18
 42c:	96 9a       	sbi	0x12, 6	; 18
 42e:	96 98       	cbi	0x12, 6	; 18
 430:	81 e0       	ldi	r24, 0x01	; 1
 432:	80 93 3b 01 	sts	0x013B, r24	; 0x80013b <disp_delay>
 436:	ff 91       	pop	r31
 438:	ef 91       	pop	r30
 43a:	bf 91       	pop	r27
 43c:	af 91       	pop	r26
 43e:	9f 91       	pop	r25
 440:	8f 91       	pop	r24
 442:	7f 91       	pop	r23
 444:	6f 91       	pop	r22
 446:	5f 91       	pop	r21
 448:	4f 91       	pop	r20
 44a:	3f 91       	pop	r19
 44c:	2f 91       	pop	r18
 44e:	0f 90       	pop	r0
 450:	0f be       	out	0x3f, r0	; 63
 452:	0f 90       	pop	r0
 454:	1f 90       	pop	r1
 456:	18 95       	reti
 458:	8f 5f       	subi	r24, 0xFF	; 255
 45a:	43 cf       	rjmp	.-378    	; 0x2e2 <__EEPROM_REGION_LENGTH__+0xe2>
 45c:	93 9a       	sbi	0x12, 3	; 18
 45e:	82 e0       	ldi	r24, 0x02	; 2
 460:	80 93 3f 01 	sts	0x013F, r24	; 0x80013f <disp_state>
 464:	e0 91 36 01 	lds	r30, 0x0136	; 0x800136 <__data_end>
 468:	f0 91 37 01 	lds	r31, 0x0137	; 0x800137 <__data_end+0x1>
 46c:	cf 01       	movw	r24, r30
 46e:	01 96       	adiw	r24, 0x01	; 1
 470:	90 93 37 01 	sts	0x0137, r25	; 0x800137 <__data_end+0x1>
 474:	80 93 36 01 	sts	0x0136, r24	; 0x800136 <__data_end>
 478:	80 81       	ld	r24, Z
 47a:	80 93 3a 01 	sts	0x013A, r24	; 0x80013a <disp_temp_data>
 47e:	80 91 39 01 	lds	r24, 0x0139	; 0x800139 <disp_column_counter>
 482:	81 50       	subi	r24, 0x01	; 1
 484:	80 93 39 01 	sts	0x0139, r24	; 0x800139 <disp_column_counter>
 488:	61 cf       	rjmp	.-318    	; 0x34c <__EEPROM_REGION_LENGTH__+0x14c>
 48a:	80 93 3f 01 	sts	0x013F, r24	; 0x80013f <disp_state>
 48e:	5e cf       	rjmp	.-324    	; 0x34c <__EEPROM_REGION_LENGTH__+0x14c>
 490:	10 92 3f 01 	sts	0x013F, r1	; 0x80013f <disp_state>
 494:	10 92 3d 01 	sts	0x013D, r1	; 0x80013d <disp_operation>
 498:	c1 cf       	rjmp	.-126    	; 0x41c <__DATA_REGION_LENGTH__+0x1c>

0000049a <__vector_default>:
 49a:	1f 92       	push	r1
 49c:	0f 92       	push	r0
 49e:	0f b6       	in	r0, 0x3f	; 63
 4a0:	0f 92       	push	r0
 4a2:	11 24       	eor	r1, r1
 4a4:	0f 90       	pop	r0
 4a6:	0f be       	out	0x3f, r0	; 63
 4a8:	0f 90       	pop	r0
 4aa:	1f 90       	pop	r1
 4ac:	18 95       	reti

000004ae <put_data_to_lcd_buffer>:
 4ae:	0f 93       	push	r16
 4b0:	1f 93       	push	r17
 4b2:	cf 93       	push	r28
 4b4:	df 93       	push	r29
 4b6:	f8 2f       	mov	r31, r24
 4b8:	e9 2f       	mov	r30, r25
 4ba:	56 2f       	mov	r21, r22
 4bc:	34 e1       	ldi	r19, 0x14	; 20
 4be:	80 2f       	mov	r24, r16
 4c0:	63 2f       	mov	r22, r19
 4c2:	0e 94 d0 04 	call	0x9a0	; 0x9a0 <__udivmodqi4>
 4c6:	a8 2f       	mov	r26, r24
 4c8:	a4 0f       	add	r26, r20
 4ca:	bb 27       	eor	r27, r27
 4cc:	bb 1f       	adc	r27, r27
 4ce:	81 e0       	ldi	r24, 0x01	; 1
 4d0:	90 e0       	ldi	r25, 0x00	; 0
 4d2:	01 c0       	rjmp	.+2      	; 0x4d6 <put_data_to_lcd_buffer+0x28>
 4d4:	88 0f       	add	r24, r24
 4d6:	aa 95       	dec	r26
 4d8:	ea f7       	brpl	.-6      	; 0x4d4 <put_data_to_lcd_buffer+0x26>
 4da:	43 9f       	mul	r20, r19
 4dc:	40 2d       	mov	r20, r0
 4de:	11 24       	eor	r1, r1
 4e0:	af 2f       	mov	r26, r31
 4e2:	be 2f       	mov	r27, r30
 4e4:	65 2f       	mov	r22, r21
 4e6:	70 e0       	ldi	r23, 0x00	; 0
 4e8:	f0 e0       	ldi	r31, 0x00	; 0
 4ea:	e0 e0       	ldi	r30, 0x00	; 0
 4ec:	04 0f       	add	r16, r20
 4ee:	11 27       	eor	r17, r17
 4f0:	11 1f       	adc	r17, r17
 4f2:	02 0f       	add	r16, r18
 4f4:	11 1d       	adc	r17, r1
 4f6:	e6 17       	cp	r30, r22
 4f8:	f7 07       	cpc	r31, r23
 4fa:	39 f4       	brne	.+14     	; 0x50a <put_data_to_lcd_buffer+0x5c>
 4fc:	80 93 40 01 	sts	0x0140, r24	; 0x800140 <disp_buffers_dirty>
 500:	df 91       	pop	r29
 502:	cf 91       	pop	r28
 504:	1f 91       	pop	r17
 506:	0f 91       	pop	r16
 508:	08 95       	ret
 50a:	2d 91       	ld	r18, X+
 50c:	e8 01       	movw	r28, r16
 50e:	ce 0f       	add	r28, r30
 510:	df 1f       	adc	r29, r31
 512:	cf 59       	subi	r28, 0x9F	; 159
 514:	df 4f       	sbci	r29, 0xFF	; 255
 516:	28 83       	st	Y, r18
 518:	31 96       	adiw	r30, 0x01	; 1
 51a:	ed cf       	rjmp	.-38     	; 0x4f6 <put_data_to_lcd_buffer+0x48>

0000051c <put_line_to_lcd_buffer>:
 51c:	0f 93       	push	r16
 51e:	24 2f       	mov	r18, r20
 520:	06 2f       	mov	r16, r22
 522:	40 e0       	ldi	r20, 0x00	; 0
 524:	64 e1       	ldi	r22, 0x14	; 20
 526:	0e 94 57 02 	call	0x4ae	; 0x4ae <put_data_to_lcd_buffer>
 52a:	0f 91       	pop	r16
 52c:	08 95       	ret

0000052e <disp_swap_buffers>:
 52e:	80 91 38 01 	lds	r24, 0x0138	; 0x800138 <disp_active_buffer>
 532:	81 11       	cpse	r24, r1
 534:	09 c0       	rjmp	.+18     	; 0x548 <disp_swap_buffers+0x1a>
 536:	80 e5       	ldi	r24, 0x50	; 80
 538:	80 93 38 01 	sts	0x0138, r24	; 0x800138 <disp_active_buffer>
 53c:	80 ef       	ldi	r24, 0xF0	; 240
 53e:	80 93 40 01 	sts	0x0140, r24	; 0x800140 <disp_buffers_dirty>
 542:	80 91 38 01 	lds	r24, 0x0138	; 0x800138 <disp_active_buffer>
 546:	08 95       	ret
 548:	10 92 38 01 	sts	0x0138, r1	; 0x800138 <disp_active_buffer>
 54c:	8f e0       	ldi	r24, 0x0F	; 15
 54e:	f7 cf       	rjmp	.-18     	; 0x53e <disp_swap_buffers+0x10>

00000550 <USART_Init>:
 550:	90 bd       	out	0x20, r25	; 32
 552:	89 b9       	out	0x09, r24	; 9
 554:	88 e1       	ldi	r24, 0x18	; 24
 556:	8a b9       	out	0x0a, r24	; 10
 558:	8e e0       	ldi	r24, 0x0E	; 14
 55a:	80 bd       	out	0x20, r24	; 32
 55c:	08 95       	ret

0000055e <USART_Transmit>:
 55e:	5d 9b       	sbis	0x0b, 5	; 11
 560:	fe cf       	rjmp	.-4      	; 0x55e <USART_Transmit>
 562:	8c b9       	out	0x0c, r24	; 12
 564:	08 95       	ret

00000566 <USART_Receive>:
 566:	5f 9b       	sbis	0x0b, 7	; 11
 568:	fe cf       	rjmp	.-4      	; 0x566 <USART_Receive>
 56a:	8c b1       	in	r24, 0x0c	; 12
 56c:	08 95       	ret

0000056e <USART_Flush>:
 56e:	5f 9b       	sbis	0x0b, 7	; 11
 570:	08 95       	ret
 572:	8c b1       	in	r24, 0x0c	; 12
 574:	fc cf       	rjmp	.-8      	; 0x56e <USART_Flush>

00000576 <USART_text>:
 576:	cf 93       	push	r28
 578:	df 93       	push	r29
 57a:	ec 01       	movw	r28, r24
 57c:	89 91       	ld	r24, Y+
 57e:	81 11       	cpse	r24, r1
 580:	03 c0       	rjmp	.+6      	; 0x588 <USART_text+0x12>
 582:	df 91       	pop	r29
 584:	cf 91       	pop	r28
 586:	08 95       	ret
 588:	0e 94 af 02 	call	0x55e	; 0x55e <USART_Transmit>
 58c:	f7 cf       	rjmp	.-18     	; 0x57c <USART_text+0x6>

0000058e <__vector_3>:
 58e:	1f 92       	push	r1
 590:	0f 92       	push	r0
 592:	0f b6       	in	r0, 0x3f	; 63
 594:	0f 92       	push	r0
 596:	11 24       	eor	r1, r1
 598:	2f 93       	push	r18
 59a:	3f 93       	push	r19
 59c:	4f 93       	push	r20
 59e:	5f 93       	push	r21
 5a0:	6f 93       	push	r22
 5a2:	7f 93       	push	r23
 5a4:	8f 93       	push	r24
 5a6:	9f 93       	push	r25
 5a8:	af 93       	push	r26
 5aa:	bf 93       	push	r27
 5ac:	ef 93       	push	r30
 5ae:	ff 93       	push	r31
 5b0:	34 9b       	sbis	0x06, 4	; 6
 5b2:	0d c0       	rjmp	.+26     	; 0x5ce <__vector_3+0x40>
 5b4:	80 91 42 01 	lds	r24, 0x0142	; 0x800142 <adc_hold>
 5b8:	88 23       	and	r24, r24
 5ba:	09 f4       	brne	.+2      	; 0x5be <__vector_3+0x30>
 5bc:	9a c0       	rjmp	.+308    	; 0x6f2 <__vector_3+0x164>
 5be:	84 30       	cpi	r24, 0x04	; 4
 5c0:	08 f4       	brcc	.+2      	; 0x5c4 <__vector_3+0x36>
 5c2:	93 c0       	rjmp	.+294    	; 0x6ea <__vector_3+0x15c>
 5c4:	86 b1       	in	r24, 0x06	; 6
 5c6:	80 65       	ori	r24, 0x50	; 80
 5c8:	86 b9       	out	0x06, r24	; 6
 5ca:	10 92 42 01 	sts	0x0142, r1	; 0x800142 <adc_hold>
 5ce:	80 91 48 01 	lds	r24, 0x0148	; 0x800148 <system_counter>
 5d2:	90 91 49 01 	lds	r25, 0x0149	; 0x800149 <system_counter+0x1>
 5d6:	81 11       	cpse	r24, r1
 5d8:	06 c0       	rjmp	.+12     	; 0x5e6 <__vector_3+0x58>
 5da:	89 2b       	or	r24, r25
 5dc:	21 f0       	breq	.+8      	; 0x5e6 <__vector_3+0x58>
 5de:	85 e0       	ldi	r24, 0x05	; 5
 5e0:	91 e0       	ldi	r25, 0x01	; 1
 5e2:	0e 94 bb 02 	call	0x576	; 0x576 <USART_text>
 5e6:	20 91 48 01 	lds	r18, 0x0148	; 0x800148 <system_counter>
 5ea:	30 91 49 01 	lds	r19, 0x0149	; 0x800149 <system_counter+0x1>
 5ee:	c9 01       	movw	r24, r18
 5f0:	8f 70       	andi	r24, 0x0F	; 15
 5f2:	99 27       	eor	r25, r25
 5f4:	89 2b       	or	r24, r25
 5f6:	09 f0       	breq	.+2      	; 0x5fa <__vector_3+0x6c>
 5f8:	42 c0       	rjmp	.+132    	; 0x67e <__vector_3+0xf0>
 5fa:	21 15       	cp	r18, r1
 5fc:	31 05       	cpc	r19, r1
 5fe:	09 f4       	brne	.+2      	; 0x602 <__vector_3+0x74>
 600:	3e c0       	rjmp	.+124    	; 0x67e <__vector_3+0xf0>
 602:	40 91 02 01 	lds	r20, 0x0102	; 0x800102 <actual_func_key>
 606:	44 34       	cpi	r20, 0x44	; 68
 608:	39 f4       	brne	.+14     	; 0x618 <__vector_3+0x8a>
 60a:	80 91 01 01 	lds	r24, 0x0101	; 0x800101 <last_func_key>
 60e:	84 34       	cpi	r24, 0x44	; 68
 610:	19 f4       	brne	.+6      	; 0x618 <__vector_3+0x8a>
 612:	81 e0       	ldi	r24, 0x01	; 1
 614:	80 93 92 01 	sts	0x0192, r24	; 0x800192 <selected_digit.2065>
 618:	90 91 92 01 	lds	r25, 0x0192	; 0x800192 <selected_digit.2065>
 61c:	99 23       	and	r25, r25
 61e:	e9 f0       	breq	.+58     	; 0x65a <__vector_3+0xcc>
 620:	80 91 04 01 	lds	r24, 0x0104	; 0x800104 <actual_num_key>
 624:	50 91 03 01 	lds	r21, 0x0103	; 0x800103 <last_num_key>
 628:	85 17       	cp	r24, r21
 62a:	71 f0       	breq	.+28     	; 0x648 <__vector_3+0xba>
 62c:	8d 32       	cpi	r24, 0x2D	; 45
 62e:	61 f0       	breq	.+24     	; 0x648 <__vector_3+0xba>
 630:	50 91 3c 01 	lds	r21, 0x013C	; 0x80013c <val_pwm0>
 634:	80 53       	subi	r24, 0x30	; 48
 636:	6a e0       	ldi	r22, 0x0A	; 10
 638:	56 9f       	mul	r21, r22
 63a:	80 0d       	add	r24, r0
 63c:	11 24       	eor	r1, r1
 63e:	80 93 3c 01 	sts	0x013C, r24	; 0x80013c <val_pwm0>
 642:	9f 5f       	subi	r25, 0xFF	; 255
 644:	90 93 92 01 	sts	0x0192, r25	; 0x800192 <selected_digit.2065>
 648:	80 91 92 01 	lds	r24, 0x0192	; 0x800192 <selected_digit.2065>
 64c:	85 30       	cpi	r24, 0x05	; 5
 64e:	28 f0       	brcs	.+10     	; 0x65a <__vector_3+0xcc>
 650:	10 92 3c 01 	sts	0x013C, r1	; 0x80013c <val_pwm0>
 654:	81 e0       	ldi	r24, 0x01	; 1
 656:	80 93 92 01 	sts	0x0192, r24	; 0x800192 <selected_digit.2065>
 65a:	41 34       	cpi	r20, 0x41	; 65
 65c:	81 f4       	brne	.+32     	; 0x67e <__vector_3+0xf0>
 65e:	80 91 01 01 	lds	r24, 0x0101	; 0x800101 <last_func_key>
 662:	81 34       	cpi	r24, 0x41	; 65
 664:	61 f4       	brne	.+24     	; 0x67e <__vector_3+0xf0>
 666:	80 91 92 01 	lds	r24, 0x0192	; 0x800192 <selected_digit.2065>
 66a:	88 23       	and	r24, r24
 66c:	41 f0       	breq	.+16     	; 0x67e <__vector_3+0xf0>
 66e:	80 91 3c 01 	lds	r24, 0x013C	; 0x80013c <val_pwm0>
 672:	80 93 9e 01 	sts	0x019E, r24	; 0x80019e <compbuff_PWM0>
 676:	10 92 3c 01 	sts	0x013C, r1	; 0x80013c <val_pwm0>
 67a:	10 92 92 01 	sts	0x0192, r1	; 0x800192 <selected_digit.2065>
 67e:	80 91 46 01 	lds	r24, 0x0146	; 0x800146 <sec_counter>
 682:	90 91 47 01 	lds	r25, 0x0147	; 0x800147 <sec_counter+0x1>
 686:	80 38       	cpi	r24, 0x80	; 128
 688:	9c 40       	sbci	r25, 0x0C	; 12
 68a:	79 f4       	brne	.+30     	; 0x6aa <__vector_3+0x11c>
 68c:	10 92 47 01 	sts	0x0147, r1	; 0x800147 <sec_counter+0x1>
 690:	10 92 46 01 	sts	0x0146, r1	; 0x800146 <sec_counter>
 694:	80 91 45 01 	lds	r24, 0x0145	; 0x800145 <sec>
 698:	91 e0       	ldi	r25, 0x01	; 1
 69a:	98 0f       	add	r25, r24
 69c:	49 2f       	mov	r20, r25
 69e:	4f 70       	andi	r20, 0x0F	; 15
 6a0:	4a 30       	cpi	r20, 0x0A	; 10
 6a2:	08 f0       	brcs	.+2      	; 0x6a6 <__vector_3+0x118>
 6a4:	93 c0       	rjmp	.+294    	; 0x7cc <__vector_3+0x23e>
 6a6:	90 93 45 01 	sts	0x0145, r25	; 0x800145 <sec>
 6aa:	2f 5f       	subi	r18, 0xFF	; 255
 6ac:	3f 4f       	sbci	r19, 0xFF	; 255
 6ae:	30 93 49 01 	sts	0x0149, r19	; 0x800149 <system_counter+0x1>
 6b2:	20 93 48 01 	sts	0x0148, r18	; 0x800148 <system_counter>
 6b6:	80 91 46 01 	lds	r24, 0x0146	; 0x800146 <sec_counter>
 6ba:	90 91 47 01 	lds	r25, 0x0147	; 0x800147 <sec_counter+0x1>
 6be:	01 96       	adiw	r24, 0x01	; 1
 6c0:	90 93 47 01 	sts	0x0147, r25	; 0x800147 <sec_counter+0x1>
 6c4:	80 93 46 01 	sts	0x0146, r24	; 0x800146 <sec_counter>
 6c8:	ff 91       	pop	r31
 6ca:	ef 91       	pop	r30
 6cc:	bf 91       	pop	r27
 6ce:	af 91       	pop	r26
 6d0:	9f 91       	pop	r25
 6d2:	8f 91       	pop	r24
 6d4:	7f 91       	pop	r23
 6d6:	6f 91       	pop	r22
 6d8:	5f 91       	pop	r21
 6da:	4f 91       	pop	r20
 6dc:	3f 91       	pop	r19
 6de:	2f 91       	pop	r18
 6e0:	0f 90       	pop	r0
 6e2:	0f be       	out	0x3f, r0	; 63
 6e4:	0f 90       	pop	r0
 6e6:	1f 90       	pop	r1
 6e8:	18 95       	reti
 6ea:	8f 5f       	subi	r24, 0xFF	; 255
 6ec:	80 93 42 01 	sts	0x0142, r24	; 0x800142 <adc_hold>
 6f0:	6e cf       	rjmp	.-292    	; 0x5ce <__vector_3+0x40>
 6f2:	30 91 93 01 	lds	r19, 0x0193	; 0x800193 <selected_adc_channel.2064>
 6f6:	20 91 41 01 	lds	r18, 0x0141	; 0x800141 <adc_read_count>
 6fa:	e2 2f       	mov	r30, r18
 6fc:	f0 e0       	ldi	r31, 0x00	; 0
 6fe:	ee 0f       	add	r30, r30
 700:	ff 1f       	adc	r31, r31
 702:	31 11       	cpse	r19, r1
 704:	22 c0       	rjmp	.+68     	; 0x74a <__vector_3+0x1bc>
 706:	21 e0       	ldi	r18, 0x01	; 1
 708:	20 93 93 01 	sts	0x0193, r18	; 0x800193 <selected_adc_channel.2064>
 70c:	e8 58       	subi	r30, 0x88	; 136
 70e:	fe 4f       	sbci	r31, 0xFE	; 254
 710:	80 91 4e 01 	lds	r24, 0x014E	; 0x80014e <metal_sense_value>
 714:	90 91 4f 01 	lds	r25, 0x014F	; 0x80014f <metal_sense_value+0x1>
 718:	20 81       	ld	r18, Z
 71a:	31 81       	ldd	r19, Z+1	; 0x01
 71c:	82 1b       	sub	r24, r18
 71e:	93 0b       	sbc	r25, r19
 720:	90 93 4f 01 	sts	0x014F, r25	; 0x80014f <metal_sense_value+0x1>
 724:	80 93 4e 01 	sts	0x014E, r24	; 0x80014e <metal_sense_value>
 728:	24 b1       	in	r18, 0x04	; 4
 72a:	35 b1       	in	r19, 0x05	; 5
 72c:	31 83       	std	Z+1, r19	; 0x01
 72e:	20 83       	st	Z, r18
 730:	82 0f       	add	r24, r18
 732:	93 1f       	adc	r25, r19
 734:	90 93 4f 01 	sts	0x014F, r25	; 0x80014f <metal_sense_value+0x1>
 738:	80 93 4e 01 	sts	0x014E, r24	; 0x80014e <metal_sense_value>
 73c:	80 91 93 01 	lds	r24, 0x0193	; 0x800193 <selected_adc_channel.2064>
 740:	8f 70       	andi	r24, 0x0F	; 15
 742:	80 64       	ori	r24, 0x40	; 64
 744:	87 b9       	out	0x07, r24	; 7
 746:	81 e0       	ldi	r24, 0x01	; 1
 748:	d1 cf       	rjmp	.-94     	; 0x6ec <__vector_3+0x15e>
 74a:	31 30       	cpi	r19, 0x01	; 1
 74c:	e1 f4       	brne	.+56     	; 0x786 <__vector_3+0x1f8>
 74e:	22 e0       	ldi	r18, 0x02	; 2
 750:	20 93 93 01 	sts	0x0193, r18	; 0x800193 <selected_adc_channel.2064>
 754:	ec 59       	subi	r30, 0x9C	; 156
 756:	fe 4f       	sbci	r31, 0xFE	; 254
 758:	80 91 4c 01 	lds	r24, 0x014C	; 0x80014c <glass_sense_value>
 75c:	90 91 4d 01 	lds	r25, 0x014D	; 0x80014d <glass_sense_value+0x1>
 760:	20 81       	ld	r18, Z
 762:	31 81       	ldd	r19, Z+1	; 0x01
 764:	82 1b       	sub	r24, r18
 766:	93 0b       	sbc	r25, r19
 768:	90 93 4d 01 	sts	0x014D, r25	; 0x80014d <glass_sense_value+0x1>
 76c:	80 93 4c 01 	sts	0x014C, r24	; 0x80014c <glass_sense_value>
 770:	24 b1       	in	r18, 0x04	; 4
 772:	35 b1       	in	r19, 0x05	; 5
 774:	31 83       	std	Z+1, r19	; 0x01
 776:	20 83       	st	Z, r18
 778:	82 0f       	add	r24, r18
 77a:	93 1f       	adc	r25, r19
 77c:	90 93 4d 01 	sts	0x014D, r25	; 0x80014d <glass_sense_value+0x1>
 780:	80 93 4c 01 	sts	0x014C, r24	; 0x80014c <glass_sense_value>
 784:	db cf       	rjmp	.-74     	; 0x73c <__vector_3+0x1ae>
 786:	10 92 93 01 	sts	0x0193, r1	; 0x800193 <selected_adc_channel.2064>
 78a:	e0 5b       	subi	r30, 0xB0	; 176
 78c:	fe 4f       	sbci	r31, 0xFE	; 254
 78e:	80 91 4a 01 	lds	r24, 0x014A	; 0x80014a <color_sense_value>
 792:	90 91 4b 01 	lds	r25, 0x014B	; 0x80014b <color_sense_value+0x1>
 796:	40 81       	ld	r20, Z
 798:	51 81       	ldd	r21, Z+1	; 0x01
 79a:	84 1b       	sub	r24, r20
 79c:	95 0b       	sbc	r25, r21
 79e:	90 93 4b 01 	sts	0x014B, r25	; 0x80014b <color_sense_value+0x1>
 7a2:	80 93 4a 01 	sts	0x014A, r24	; 0x80014a <color_sense_value>
 7a6:	44 b1       	in	r20, 0x04	; 4
 7a8:	55 b1       	in	r21, 0x05	; 5
 7aa:	51 83       	std	Z+1, r21	; 0x01
 7ac:	40 83       	st	Z, r20
 7ae:	84 0f       	add	r24, r20
 7b0:	95 1f       	adc	r25, r21
 7b2:	90 93 4b 01 	sts	0x014B, r25	; 0x80014b <color_sense_value+0x1>
 7b6:	80 93 4a 01 	sts	0x014A, r24	; 0x80014a <color_sense_value>
 7ba:	2f 5f       	subi	r18, 0xFF	; 255
 7bc:	2a 30       	cpi	r18, 0x0A	; 10
 7be:	18 f4       	brcc	.+6      	; 0x7c6 <__vector_3+0x238>
 7c0:	20 93 41 01 	sts	0x0141, r18	; 0x800141 <adc_read_count>
 7c4:	bb cf       	rjmp	.-138    	; 0x73c <__vector_3+0x1ae>
 7c6:	10 92 41 01 	sts	0x0141, r1	; 0x800141 <adc_read_count>
 7ca:	b8 cf       	rjmp	.-144    	; 0x73c <__vector_3+0x1ae>
 7cc:	8f 5e       	subi	r24, 0xEF	; 239
 7ce:	80 7f       	andi	r24, 0xF0	; 240
 7d0:	81 35       	cpi	r24, 0x51	; 81
 7d2:	18 f4       	brcc	.+6      	; 0x7da <__vector_3+0x24c>
 7d4:	80 93 45 01 	sts	0x0145, r24	; 0x800145 <sec>
 7d8:	68 cf       	rjmp	.-304    	; 0x6aa <__vector_3+0x11c>
 7da:	10 92 45 01 	sts	0x0145, r1	; 0x800145 <sec>
 7de:	80 91 44 01 	lds	r24, 0x0144	; 0x800144 <min>
 7e2:	91 e0       	ldi	r25, 0x01	; 1
 7e4:	98 0f       	add	r25, r24
 7e6:	49 2f       	mov	r20, r25
 7e8:	4f 70       	andi	r20, 0x0F	; 15
 7ea:	4a 30       	cpi	r20, 0x0A	; 10
 7ec:	18 f4       	brcc	.+6      	; 0x7f4 <__vector_3+0x266>
 7ee:	90 93 44 01 	sts	0x0144, r25	; 0x800144 <min>
 7f2:	5b cf       	rjmp	.-330    	; 0x6aa <__vector_3+0x11c>
 7f4:	8f 5e       	subi	r24, 0xEF	; 239
 7f6:	80 7f       	andi	r24, 0xF0	; 240
 7f8:	81 35       	cpi	r24, 0x51	; 81
 7fa:	18 f4       	brcc	.+6      	; 0x802 <__vector_3+0x274>
 7fc:	80 93 44 01 	sts	0x0144, r24	; 0x800144 <min>
 800:	54 cf       	rjmp	.-344    	; 0x6aa <__vector_3+0x11c>
 802:	10 92 44 01 	sts	0x0144, r1	; 0x800144 <min>
 806:	80 91 43 01 	lds	r24, 0x0143	; 0x800143 <hour>
 80a:	91 e0       	ldi	r25, 0x01	; 1
 80c:	98 0f       	add	r25, r24
 80e:	49 2f       	mov	r20, r25
 810:	4f 70       	andi	r20, 0x0F	; 15
 812:	4a 30       	cpi	r20, 0x0A	; 10
 814:	18 f4       	brcc	.+6      	; 0x81c <__vector_3+0x28e>
 816:	90 93 43 01 	sts	0x0143, r25	; 0x800143 <hour>
 81a:	47 cf       	rjmp	.-370    	; 0x6aa <__vector_3+0x11c>
 81c:	8f 5e       	subi	r24, 0xEF	; 239
 81e:	80 7f       	andi	r24, 0xF0	; 240
 820:	80 93 43 01 	sts	0x0143, r24	; 0x800143 <hour>
 824:	42 cf       	rjmp	.-380    	; 0x6aa <__vector_3+0x11c>

00000826 <wait_ms>:
 826:	01 97       	sbiw	r24, 0x01	; 1
 828:	08 f4       	brcc	.+2      	; 0x82c <wait_ms+0x6>
 82a:	08 95       	ret
 82c:	e6 e6       	ldi	r30, 0x66	; 102
 82e:	fe e0       	ldi	r31, 0x0E	; 14
 830:	31 97       	sbiw	r30, 0x01	; 1
 832:	f1 f7       	brne	.-4      	; 0x830 <wait_ms+0xa>
 834:	00 00       	nop
 836:	f7 cf       	rjmp	.-18     	; 0x826 <wait_ms>

00000838 <wait_us>:
 838:	81 50       	subi	r24, 0x01	; 1
 83a:	08 f4       	brcc	.+2      	; 0x83e <wait_us+0x6>
 83c:	08 95       	ret
 83e:	95 e0       	ldi	r25, 0x05	; 5
 840:	9a 95       	dec	r25
 842:	f1 f7       	brne	.-4      	; 0x840 <wait_us+0x8>
 844:	f9 cf       	rjmp	.-14     	; 0x838 <wait_us>

00000846 <lcd_write_nibble>:
 846:	95 b3       	in	r25, 0x15	; 21
 848:	90 7f       	andi	r25, 0xF0	; 240
 84a:	95 bb       	out	0x15, r25	; 21
 84c:	95 b3       	in	r25, 0x15	; 21
 84e:	8f 70       	andi	r24, 0x0F	; 15
 850:	89 2b       	or	r24, r25
 852:	85 bb       	out	0x15, r24	; 21
 854:	88 ec       	ldi	r24, 0xC8	; 200
 856:	0e 94 1c 04 	call	0x838	; 0x838 <wait_us>
 85a:	96 98       	cbi	0x12, 6	; 18
 85c:	96 9a       	sbi	0x12, 6	; 18
 85e:	96 98       	cbi	0x12, 6	; 18
 860:	88 ec       	ldi	r24, 0xC8	; 200
 862:	0c 94 1c 04 	jmp	0x838	; 0x838 <wait_us>

00000866 <lcd_command>:
 866:	cf 93       	push	r28
 868:	c8 2f       	mov	r28, r24
 86a:	93 98       	cbi	0x12, 3	; 18
 86c:	82 95       	swap	r24
 86e:	8f 70       	andi	r24, 0x0F	; 15
 870:	0e 94 23 04 	call	0x846	; 0x846 <lcd_write_nibble>
 874:	8c 2f       	mov	r24, r28
 876:	cf 91       	pop	r28
 878:	0c 94 23 04 	jmp	0x846	; 0x846 <lcd_write_nibble>

0000087c <lcd_init>:
 87c:	83 e0       	ldi	r24, 0x03	; 3
 87e:	0e 94 23 04 	call	0x846	; 0x846 <lcd_write_nibble>
 882:	85 e0       	ldi	r24, 0x05	; 5
 884:	90 e0       	ldi	r25, 0x00	; 0
 886:	0e 94 13 04 	call	0x826	; 0x826 <wait_ms>
 88a:	83 e0       	ldi	r24, 0x03	; 3
 88c:	0e 94 23 04 	call	0x846	; 0x846 <lcd_write_nibble>
 890:	85 e0       	ldi	r24, 0x05	; 5
 892:	90 e0       	ldi	r25, 0x00	; 0
 894:	0e 94 13 04 	call	0x826	; 0x826 <wait_ms>
 898:	83 e0       	ldi	r24, 0x03	; 3
 89a:	0e 94 23 04 	call	0x846	; 0x846 <lcd_write_nibble>
 89e:	85 e0       	ldi	r24, 0x05	; 5
 8a0:	90 e0       	ldi	r25, 0x00	; 0
 8a2:	0e 94 13 04 	call	0x826	; 0x826 <wait_ms>
 8a6:	82 e0       	ldi	r24, 0x02	; 2
 8a8:	0e 94 23 04 	call	0x846	; 0x846 <lcd_write_nibble>
 8ac:	81 e0       	ldi	r24, 0x01	; 1
 8ae:	90 e0       	ldi	r25, 0x00	; 0
 8b0:	0e 94 13 04 	call	0x826	; 0x826 <wait_ms>
 8b4:	88 e2       	ldi	r24, 0x28	; 40
 8b6:	0e 94 33 04 	call	0x866	; 0x866 <lcd_command>
 8ba:	81 e0       	ldi	r24, 0x01	; 1
 8bc:	0e 94 33 04 	call	0x866	; 0x866 <lcd_command>
 8c0:	82 e0       	ldi	r24, 0x02	; 2
 8c2:	90 e0       	ldi	r25, 0x00	; 0
 8c4:	0e 94 13 04 	call	0x826	; 0x826 <wait_ms>
 8c8:	8c e0       	ldi	r24, 0x0C	; 12
 8ca:	0e 94 33 04 	call	0x866	; 0x866 <lcd_command>
 8ce:	86 e0       	ldi	r24, 0x06	; 6
 8d0:	0e 94 33 04 	call	0x866	; 0x866 <lcd_command>
 8d4:	84 e1       	ldi	r24, 0x14	; 20
 8d6:	80 93 99 01 	sts	0x0199, r24	; 0x800199 <lcdColumns>
 8da:	94 e0       	ldi	r25, 0x04	; 4
 8dc:	90 93 95 01 	sts	0x0195, r25	; 0x800195 <lcdRows>
 8e0:	ea e9       	ldi	r30, 0x9A	; 154
 8e2:	f1 e0       	ldi	r31, 0x01	; 1
 8e4:	10 82       	st	Z, r1
 8e6:	90 e4       	ldi	r25, 0x40	; 64
 8e8:	91 83       	std	Z+1, r25	; 0x01
 8ea:	82 83       	std	Z+2, r24	; 0x02
 8ec:	84 e5       	ldi	r24, 0x54	; 84
 8ee:	83 83       	std	Z+3, r24	; 0x03
 8f0:	82 e0       	ldi	r24, 0x02	; 2
 8f2:	0e 94 33 04 	call	0x866	; 0x866 <lcd_command>
 8f6:	82 e0       	ldi	r24, 0x02	; 2
 8f8:	90 e0       	ldi	r25, 0x00	; 0
 8fa:	0e 94 13 04 	call	0x826	; 0x826 <wait_ms>
 8fe:	93 9a       	sbi	0x12, 3	; 18
 900:	84 e0       	ldi	r24, 0x04	; 4
 902:	0e 94 23 04 	call	0x846	; 0x846 <lcd_write_nibble>
 906:	8f e4       	ldi	r24, 0x4F	; 79
 908:	0e 94 23 04 	call	0x846	; 0x846 <lcd_write_nibble>
 90c:	84 e0       	ldi	r24, 0x04	; 4
 90e:	0e 94 23 04 	call	0x846	; 0x846 <lcd_write_nibble>
 912:	8b e4       	ldi	r24, 0x4B	; 75
 914:	0e 94 23 04 	call	0x846	; 0x846 <lcd_write_nibble>
 918:	80 e5       	ldi	r24, 0x50	; 80
 91a:	90 e0       	ldi	r25, 0x00	; 0
 91c:	0c 94 13 04 	jmp	0x826	; 0x826 <wait_ms>

00000920 <setup>:
 920:	f8 94       	cli
 922:	80 e8       	ldi	r24, 0x80	; 128
 924:	8a bb       	out	0x1a, r24	; 26
 926:	9f e0       	ldi	r25, 0x0F	; 15
 928:	97 bb       	out	0x17, r25	; 23
 92a:	9f ef       	ldi	r25, 0xFF	; 255
 92c:	94 bb       	out	0x14, r25	; 20
 92e:	9c ef       	ldi	r25, 0xFC	; 252
 930:	91 bb       	out	0x11, r25	; 17
 932:	90 e7       	ldi	r25, 0x70	; 112
 934:	9b bb       	out	0x1b, r25	; 27
 936:	90 ef       	ldi	r25, 0xF0	; 240
 938:	98 bb       	out	0x18, r25	; 24
 93a:	95 bb       	out	0x15, r25	; 21
 93c:	94 e0       	ldi	r25, 0x04	; 4
 93e:	92 bb       	out	0x12, r25	; 18
 940:	90 e4       	ldi	r25, 0x40	; 64
 942:	97 b9       	out	0x07, r25	; 7
 944:	97 ec       	ldi	r25, 0xC7	; 199
 946:	96 b9       	out	0x06, r25	; 6
 948:	9a e0       	ldi	r25, 0x0A	; 10
 94a:	93 bf       	out	0x33, r25	; 51
 94c:	9e e8       	ldi	r25, 0x8E	; 142
 94e:	9c bf       	out	0x3c, r25	; 60
 950:	9b e0       	ldi	r25, 0x0B	; 11
 952:	95 bd       	out	0x25, r25	; 37
 954:	9f e8       	ldi	r25, 0x8F	; 143
 956:	93 bd       	out	0x23, r25	; 35
 958:	92 e8       	ldi	r25, 0x82	; 130
 95a:	99 bf       	out	0x39, r25	; 57
 95c:	88 b9       	out	0x08, r24	; 8
 95e:	10 92 96 01 	sts	0x0196, r1	; 0x800196 <compare_PWM0>
 962:	10 92 9e 01 	sts	0x019E, r1	; 0x80019e <compbuff_PWM0>
 966:	80 e3       	ldi	r24, 0x30	; 48
 968:	80 93 a1 01 	sts	0x01A1, r24	; 0x8001a1 <compare_PWM1>
 96c:	80 93 97 01 	sts	0x0197, r24	; 0x800197 <compbuff_PWM1>
 970:	8a ea       	ldi	r24, 0xAA	; 170
 972:	80 93 98 01 	sts	0x0198, r24	; 0x800198 <compare_PWM2>
 976:	80 93 94 01 	sts	0x0194, r24	; 0x800194 <compbuff_PWM2>
 97a:	0e 94 3e 04 	call	0x87c	; 0x87c <lcd_init>
 97e:	78 94       	sei
 980:	08 95       	ret

00000982 <main>:
 982:	0e 94 90 04 	call	0x920	; 0x920 <setup>
 986:	00 e0       	ldi	r16, 0x00	; 0
 988:	20 e0       	ldi	r18, 0x00	; 0
 98a:	40 e0       	ldi	r20, 0x00	; 0
 98c:	6c e0       	ldi	r22, 0x0C	; 12
 98e:	8a e2       	ldi	r24, 0x2A	; 42
 990:	91 e0       	ldi	r25, 0x01	; 1
 992:	0e 94 57 02 	call	0x4ae	; 0x4ae <put_data_to_lcd_buffer>
 996:	84 ef       	ldi	r24, 0xF4	; 244
 998:	91 e0       	ldi	r25, 0x01	; 1
 99a:	0e 94 13 04 	call	0x826	; 0x826 <wait_ms>
 99e:	fb cf       	rjmp	.-10     	; 0x996 <main+0x14>

000009a0 <__udivmodqi4>:
 9a0:	99 1b       	sub	r25, r25
 9a2:	79 e0       	ldi	r23, 0x09	; 9
 9a4:	04 c0       	rjmp	.+8      	; 0x9ae <__udivmodqi4_ep>

000009a6 <__udivmodqi4_loop>:
 9a6:	99 1f       	adc	r25, r25
 9a8:	96 17       	cp	r25, r22
 9aa:	08 f0       	brcs	.+2      	; 0x9ae <__udivmodqi4_ep>
 9ac:	96 1b       	sub	r25, r22

000009ae <__udivmodqi4_ep>:
 9ae:	88 1f       	adc	r24, r24
 9b0:	7a 95       	dec	r23
 9b2:	c9 f7       	brne	.-14     	; 0x9a6 <__udivmodqi4_loop>
 9b4:	80 95       	com	r24
 9b6:	08 95       	ret

000009b8 <_exit>:
 9b8:	f8 94       	cli

000009ba <__stop_program>:
 9ba:	ff cf       	rjmp	.-2      	; 0x9ba <__stop_program>
Contents of the .debug_info section:

  Compilation Unit @ offset 0x0:
   Length:        0x52a (32-bit)
   Version:       2
   Abbrev Offset: 0x0
   Pointer Size:  4
 <0><b>: Abbrev Number: 1 (DW_TAG_compile_unit)
    <c>   DW_AT_producer    : (indirect string, offset: 0x0): avr-libc 2.0.0
    <10>   DW_AT_stmt_list   : 0x0
 <1><14>: Abbrev Number: 2 (DW_TAG_base_type)
    <15>   DW_AT_name        : (indirect string, offset: 0xf): uint8_t
    <19>   DW_AT_byte_size   : 1
    <1a>   DW_AT_encoding    : 8	(unsigned char)
 <1><1b>: Abbrev Number: 3 (DW_TAG_base_type)
    <1c>   DW_AT_name        : (indirect string, offset: 0x17): uint16_t
    <20>   DW_AT_byte_size   : 2
    <21>   DW_AT_encoding    : 7	(unsigned)
 <1><22>: Abbrev Number: 4 (DW_TAG_array_type)
    <23>   DW_AT_type        : <0x14>
 <2><27>: Abbrev Number: 5 (DW_TAG_subrange_type)
    <28>   DW_AT_type        : <0x1b>
    <2c>   DW_AT_upper_bound : 511
 <2><2e>: Abbrev Number: 0
 <1><2f>: Abbrev Number: 6 (DW_TAG_variable)
    <30>   DW_AT_name        : (indirect string, offset: 0x20): __eeprom
    <34>   DW_AT_decl_file   : 0
    <35>   DW_AT_decl_line   : 0
    <36>   DW_AT_type        : <0x22>
    <3a>   DW_AT_external    : 1
    <3b>   DW_AT_location    : 5 byte block: 3 0 0 81 0 	(DW_OP_addr: 810000)
 <1><41>: Abbrev Number: 7 (DW_TAG_variable)
    <42>   DW_AT_name        : (indirect string, offset: 0x29): TCCR0
    <46>   DW_AT_decl_file   : 0
    <47>   DW_AT_decl_line   : 0
    <48>   DW_AT_type        : <0x14>
    <4c>   DW_AT_external    : 1
    <4d>   DW_AT_location    : 5 byte block: 3 53 0 80 0 	(DW_OP_addr: 800053)
 <1><53>: Abbrev Number: 8 (DW_TAG_variable)
    <54>   DW_AT_name        : (indirect string, offset: 0x2f): TCNT0
    <58>   DW_AT_decl_file   : 0
    <59>   DW_AT_decl_line   : 0
    <5a>   DW_AT_type        : <0x14>
    <5e>   DW_AT_external    : 1
    <5f>   DW_AT_location    : 5 byte block: 3 52 0 80 0 	(DW_OP_addr: 800052)
 <1><65>: Abbrev Number: 9 (DW_TAG_variable)
    <66>   DW_AT_name        : (indirect string, offset: 0x35): OCR0
    <6a>   DW_AT_decl_file   : 0
    <6b>   DW_AT_decl_line   : 0
    <6c>   DW_AT_type        : <0x14>
    <70>   DW_AT_external    : 1
    <71>   DW_AT_location    : 5 byte block: 3 5c 0 80 0 	(DW_OP_addr: 80005c)
 <1><77>: Abbrev Number: 10 (DW_TAG_variable)
    <78>   DW_AT_name        : (indirect string, offset: 0x3a): TIMSK
    <7c>   DW_AT_decl_file   : 0
    <7d>   DW_AT_decl_line   : 0
    <7e>   DW_AT_type        : <0x14>
    <82>   DW_AT_external    : 1
    <83>   DW_AT_location    : 5 byte block: 3 59 0 80 0 	(DW_OP_addr: 800059)
 <1><89>: Abbrev Number: 11 (DW_TAG_variable)
    <8a>   DW_AT_name        : (indirect string, offset: 0x40): TIFR
    <8e>   DW_AT_decl_file   : 0
    <8f>   DW_AT_decl_line   : 0
    <90>   DW_AT_type        : <0x14>
    <94>   DW_AT_external    : 1
    <95>   DW_AT_location    : 5 byte block: 3 58 0 80 0 	(DW_OP_addr: 800058)
 <1><9b>: Abbrev Number: 12 (DW_TAG_variable)
    <9c>   DW_AT_name        : (indirect string, offset: 0x45): SFIOR
    <a0>   DW_AT_decl_file   : 0
    <a1>   DW_AT_decl_line   : 0
    <a2>   DW_AT_type        : <0x14>
    <a6>   DW_AT_external    : 1
    <a7>   DW_AT_location    : 5 byte block: 3 50 0 80 0 	(DW_OP_addr: 800050)
 <1><ad>: Abbrev Number: 13 (DW_TAG_variable)
    <ae>   DW_AT_name        : (indirect string, offset: 0x4b): TIMSK
    <b2>   DW_AT_decl_file   : 0
    <b3>   DW_AT_decl_line   : 0
    <b4>   DW_AT_type        : <0x14>
    <b8>   DW_AT_external    : 1
    <b9>   DW_AT_location    : 5 byte block: 3 59 0 80 0 	(DW_OP_addr: 800059)
 <1><bf>: Abbrev Number: 14 (DW_TAG_variable)
    <c0>   DW_AT_name        : (indirect string, offset: 0x51): TIFR
    <c4>   DW_AT_decl_file   : 0
    <c5>   DW_AT_decl_line   : 0
    <c6>   DW_AT_type        : <0x14>
    <ca>   DW_AT_external    : 1
    <cb>   DW_AT_location    : 5 byte block: 3 58 0 80 0 	(DW_OP_addr: 800058)
 <1><d1>: Abbrev Number: 15 (DW_TAG_variable)
    <d2>   DW_AT_name        : (indirect string, offset: 0x56): TCCR1A
    <d6>   DW_AT_decl_file   : 0
    <d7>   DW_AT_decl_line   : 0
    <d8>   DW_AT_type        : <0x14>
    <dc>   DW_AT_external    : 1
    <dd>   DW_AT_location    : 5 byte block: 3 4f 0 80 0 	(DW_OP_addr: 80004f)
 <1><e3>: Abbrev Number: 16 (DW_TAG_variable)
    <e4>   DW_AT_name        : (indirect string, offset: 0x5d): TCCR1B
    <e8>   DW_AT_decl_file   : 0
    <e9>   DW_AT_decl_line   : 0
    <ea>   DW_AT_type        : <0x14>
    <ee>   DW_AT_external    : 1
    <ef>   DW_AT_location    : 5 byte block: 3 4e 0 80 0 	(DW_OP_addr: 80004e)
 <1><f5>: Abbrev Number: 17 (DW_TAG_variable)
    <f6>   DW_AT_name        : (indirect string, offset: 0x64): TCNT1
    <fa>   DW_AT_decl_file   : 0
    <fb>   DW_AT_decl_line   : 0
    <fc>   DW_AT_type        : <0x1b>
    <100>   DW_AT_external    : 1
    <101>   DW_AT_location    : 5 byte block: 3 4c 0 80 0 	(DW_OP_addr: 80004c)
 <1><107>: Abbrev Number: 18 (DW_TAG_variable)
    <108>   DW_AT_name        : (indirect string, offset: 0x6a): OCR1A
    <10c>   DW_AT_decl_file   : 0
    <10d>   DW_AT_decl_line   : 0
    <10e>   DW_AT_type        : <0x1b>
    <112>   DW_AT_external    : 1
    <113>   DW_AT_location    : 5 byte block: 3 4a 0 80 0 	(DW_OP_addr: 80004a)
 <1><119>: Abbrev Number: 19 (DW_TAG_variable)
    <11a>   DW_AT_name        : (indirect string, offset: 0x70): OCR1B
    <11e>   DW_AT_decl_file   : 0
    <11f>   DW_AT_decl_line   : 0
    <120>   DW_AT_type        : <0x1b>
    <124>   DW_AT_external    : 1
    <125>   DW_AT_location    : 5 byte block: 3 48 0 80 0 	(DW_OP_addr: 800048)
 <1><12b>: Abbrev Number: 20 (DW_TAG_variable)
    <12c>   DW_AT_name        : (indirect string, offset: 0x76): ICR1
    <130>   DW_AT_decl_file   : 0
    <131>   DW_AT_decl_line   : 0
    <132>   DW_AT_type        : <0x1b>
    <136>   DW_AT_external    : 1
    <137>   DW_AT_location    : 5 byte block: 3 46 0 80 0 	(DW_OP_addr: 800046)
 <1><13d>: Abbrev Number: 21 (DW_TAG_variable)
    <13e>   DW_AT_name        : (indirect string, offset: 0x7b): GICR
    <142>   DW_AT_decl_file   : 0
    <143>   DW_AT_decl_line   : 0
    <144>   DW_AT_type        : <0x14>
    <148>   DW_AT_external    : 1
    <149>   DW_AT_location    : 5 byte block: 3 5b 0 80 0 	(DW_OP_addr: 80005b)
 <1><14f>: Abbrev Number: 22 (DW_TAG_variable)
    <150>   DW_AT_name        : (indirect string, offset: 0x80): GIFR
    <154>   DW_AT_decl_file   : 0
    <155>   DW_AT_decl_line   : 0
    <156>   DW_AT_type        : <0x14>
    <15a>   DW_AT_external    : 1
    <15b>   DW_AT_location    : 5 byte block: 3 5a 0 80 0 	(DW_OP_addr: 80005a)
 <1><161>: Abbrev Number: 23 (DW_TAG_variable)
    <162>   DW_AT_name        : (indirect string, offset: 0x85): MCUCR
    <166>   DW_AT_decl_file   : 0
    <167>   DW_AT_decl_line   : 0
    <168>   DW_AT_type        : <0x14>
    <16c>   DW_AT_external    : 1
    <16d>   DW_AT_location    : 5 byte block: 3 55 0 80 0 	(DW_OP_addr: 800055)
 <1><173>: Abbrev Number: 24 (DW_TAG_variable)
    <174>   DW_AT_name        : (indirect string, offset: 0x8b): MCUCSR
    <178>   DW_AT_decl_file   : 0
    <179>   DW_AT_decl_line   : 0
    <17a>   DW_AT_type        : <0x14>
    <17e>   DW_AT_external    : 1
    <17f>   DW_AT_location    : 5 byte block: 3 54 0 80 0 	(DW_OP_addr: 800054)
 <1><185>: Abbrev Number: 25 (DW_TAG_variable)
    <186>   DW_AT_name        : (indirect string, offset: 0x92): EEAR
    <18a>   DW_AT_decl_file   : 0
    <18b>   DW_AT_decl_line   : 0
    <18c>   DW_AT_type        : <0x1b>
    <190>   DW_AT_external    : 1
    <191>   DW_AT_location    : 5 byte block: 3 3e 0 80 0 	(DW_OP_addr: 80003e)
 <1><197>: Abbrev Number: 26 (DW_TAG_variable)
    <198>   DW_AT_name        : (indirect string, offset: 0x97): EEDR
    <19c>   DW_AT_decl_file   : 0
    <19d>   DW_AT_decl_line   : 0
    <19e>   DW_AT_type        : <0x14>
    <1a2>   DW_AT_external    : 1
    <1a3>   DW_AT_location    : 5 byte block: 3 3d 0 80 0 	(DW_OP_addr: 80003d)
 <1><1a9>: Abbrev Number: 27 (DW_TAG_variable)
    <1aa>   DW_AT_name        : (indirect string, offset: 0x9c): EECR
    <1ae>   DW_AT_decl_file   : 0
    <1af>   DW_AT_decl_line   : 0
    <1b0>   DW_AT_type        : <0x14>
    <1b4>   DW_AT_external    : 1
    <1b5>   DW_AT_location    : 5 byte block: 3 3c 0 80 0 	(DW_OP_addr: 80003c)
 <1><1bb>: Abbrev Number: 28 (DW_TAG_variable)
    <1bc>   DW_AT_name        : (indirect string, offset: 0xa1): SREG
    <1c0>   DW_AT_decl_file   : 0
    <1c1>   DW_AT_decl_line   : 0
    <1c2>   DW_AT_type        : <0x14>
    <1c6>   DW_AT_external    : 1
    <1c7>   DW_AT_location    : 5 byte block: 3 5f 0 80 0 	(DW_OP_addr: 80005f)
 <1><1cd>: Abbrev Number: 29 (DW_TAG_variable)
    <1ce>   DW_AT_name        : (indirect string, offset: 0xa6): SP
    <1d2>   DW_AT_decl_file   : 0
    <1d3>   DW_AT_decl_line   : 0
    <1d4>   DW_AT_type        : <0x1b>
    <1d8>   DW_AT_external    : 1
    <1d9>   DW_AT_location    : 5 byte block: 3 5d 0 80 0 	(DW_OP_addr: 80005d)
 <1><1df>: Abbrev Number: 30 (DW_TAG_variable)
    <1e0>   DW_AT_name        : (indirect string, offset: 0xa9): MCUCR
    <1e4>   DW_AT_decl_file   : 0
    <1e5>   DW_AT_decl_line   : 0
    <1e6>   DW_AT_type        : <0x14>
    <1ea>   DW_AT_external    : 1
    <1eb>   DW_AT_location    : 5 byte block: 3 55 0 80 0 	(DW_OP_addr: 800055)
 <1><1f1>: Abbrev Number: 31 (DW_TAG_variable)
    <1f2>   DW_AT_name        : (indirect string, offset: 0xaf): MCUCSR
    <1f6>   DW_AT_decl_file   : 0
    <1f7>   DW_AT_decl_line   : 0
    <1f8>   DW_AT_type        : <0x14>
    <1fc>   DW_AT_external    : 1
    <1fd>   DW_AT_location    : 5 byte block: 3 54 0 80 0 	(DW_OP_addr: 800054)
 <1><203>: Abbrev Number: 32 (DW_TAG_variable)
    <204>   DW_AT_name        : (indirect string, offset: 0xb6): OSCCAL
    <208>   DW_AT_decl_file   : 0
    <209>   DW_AT_decl_line   : 0
    <20a>   DW_AT_type        : <0x14>
    <20e>   DW_AT_external    : 1
    <20f>   DW_AT_location    : 5 byte block: 3 51 0 80 0 	(DW_OP_addr: 800051)
 <1><215>: Abbrev Number: 33 (DW_TAG_variable)
    <216>   DW_AT_name        : (indirect string, offset: 0xbd): SFIOR
    <21a>   DW_AT_decl_file   : 0
    <21b>   DW_AT_decl_line   : 0
    <21c>   DW_AT_type        : <0x14>
    <220>   DW_AT_external    : 1
    <221>   DW_AT_location    : 5 byte block: 3 50 0 80 0 	(DW_OP_addr: 800050)
 <1><227>: Abbrev Number: 34 (DW_TAG_variable)
    <228>   DW_AT_name        : (indirect string, offset: 0xc3): TIMSK
    <22c>   DW_AT_decl_file   : 0
    <22d>   DW_AT_decl_line   : 0
    <22e>   DW_AT_type        : <0x14>
    <232>   DW_AT_external    : 1
    <233>   DW_AT_location    : 5 byte block: 3 59 0 80 0 	(DW_OP_addr: 800059)
 <1><239>: Abbrev Number: 35 (DW_TAG_variable)
    <23a>   DW_AT_name        : (indirect string, offset: 0xc9): TIFR
    <23e>   DW_AT_decl_file   : 0
    <23f>   DW_AT_decl_line   : 0
    <240>   DW_AT_type        : <0x14>
    <244>   DW_AT_external    : 1
    <245>   DW_AT_location    : 5 byte block: 3 58 0 80 0 	(DW_OP_addr: 800058)
 <1><24b>: Abbrev Number: 36 (DW_TAG_variable)
    <24c>   DW_AT_name        : (indirect string, offset: 0xce): TCCR2
    <250>   DW_AT_decl_file   : 0
    <251>   DW_AT_decl_line   : 0
    <252>   DW_AT_type        : <0x14>
    <256>   DW_AT_external    : 1
    <257>   DW_AT_location    : 5 byte block: 3 45 0 80 0 	(DW_OP_addr: 800045)
 <1><25d>: Abbrev Number: 37 (DW_TAG_variable)
    <25e>   DW_AT_name        : (indirect string, offset: 0xd4): TCNT2
    <262>   DW_AT_decl_file   : 0
    <263>   DW_AT_decl_line   : 0
    <264>   DW_AT_type        : <0x14>
    <268>   DW_AT_external    : 1
    <269>   DW_AT_location    : 5 byte block: 3 44 0 80 0 	(DW_OP_addr: 800044)
 <1><26f>: Abbrev Number: 38 (DW_TAG_variable)
    <270>   DW_AT_name        : (indirect string, offset: 0xda): OCR2
    <274>   DW_AT_decl_file   : 0
    <275>   DW_AT_decl_line   : 0
    <276>   DW_AT_type        : <0x14>
    <27a>   DW_AT_external    : 1
    <27b>   DW_AT_location    : 5 byte block: 3 43 0 80 0 	(DW_OP_addr: 800043)
 <1><281>: Abbrev Number: 39 (DW_TAG_variable)
    <282>   DW_AT_name        : (indirect string, offset: 0xdf): ASSR
    <286>   DW_AT_decl_file   : 0
    <287>   DW_AT_decl_line   : 0
    <288>   DW_AT_type        : <0x14>
    <28c>   DW_AT_external    : 1
    <28d>   DW_AT_location    : 5 byte block: 3 42 0 80 0 	(DW_OP_addr: 800042)
 <1><293>: Abbrev Number: 40 (DW_TAG_variable)
    <294>   DW_AT_name        : (indirect string, offset: 0xe4): SFIOR
    <298>   DW_AT_decl_file   : 0
    <299>   DW_AT_decl_line   : 0
    <29a>   DW_AT_type        : <0x14>
    <29e>   DW_AT_external    : 1
    <29f>   DW_AT_location    : 5 byte block: 3 50 0 80 0 	(DW_OP_addr: 800050)
 <1><2a5>: Abbrev Number: 41 (DW_TAG_variable)
    <2a6>   DW_AT_name        : (indirect string, offset: 0xea): SPDR
    <2aa>   DW_AT_decl_file   : 0
    <2ab>   DW_AT_decl_line   : 0
    <2ac>   DW_AT_type        : <0x14>
    <2b0>   DW_AT_external    : 1
    <2b1>   DW_AT_location    : 5 byte block: 3 2f 0 80 0 	(DW_OP_addr: 80002f)
 <1><2b7>: Abbrev Number: 42 (DW_TAG_variable)
    <2b8>   DW_AT_name        : (indirect string, offset: 0xef): SPSR
    <2bc>   DW_AT_decl_file   : 0
    <2bd>   DW_AT_decl_line   : 0
    <2be>   DW_AT_type        : <0x14>
    <2c2>   DW_AT_external    : 1
    <2c3>   DW_AT_location    : 5 byte block: 3 2e 0 80 0 	(DW_OP_addr: 80002e)
 <1><2c9>: Abbrev Number: 43 (DW_TAG_variable)
    <2ca>   DW_AT_name        : (indirect string, offset: 0xf4): SPCR
    <2ce>   DW_AT_decl_file   : 0
    <2cf>   DW_AT_decl_line   : 0
    <2d0>   DW_AT_type        : <0x14>
    <2d4>   DW_AT_external    : 1
    <2d5>   DW_AT_location    : 5 byte block: 3 2d 0 80 0 	(DW_OP_addr: 80002d)
 <1><2db>: Abbrev Number: 44 (DW_TAG_variable)
    <2dc>   DW_AT_name        : (indirect string, offset: 0xf9): UDR
    <2e0>   DW_AT_decl_file   : 0
    <2e1>   DW_AT_decl_line   : 0
    <2e2>   DW_AT_type        : <0x14>
    <2e6>   DW_AT_external    : 1
    <2e7>   DW_AT_location    : 5 byte block: 3 2c 0 80 0 	(DW_OP_addr: 80002c)
 <1><2ed>: Abbrev Number: 45 (DW_TAG_variable)
    <2ee>   DW_AT_name        : (indirect string, offset: 0xfd): UCSRA
    <2f2>   DW_AT_decl_file   : 0
    <2f3>   DW_AT_decl_line   : 0
    <2f4>   DW_AT_type        : <0x14>
    <2f8>   DW_AT_external    : 1
    <2f9>   DW_AT_location    : 5 byte block: 3 2b 0 80 0 	(DW_OP_addr: 80002b)
 <1><2ff>: Abbrev Number: 46 (DW_TAG_variable)
    <300>   DW_AT_name        : (indirect string, offset: 0x103): UCSRB
    <304>   DW_AT_decl_file   : 0
    <305>   DW_AT_decl_line   : 0
    <306>   DW_AT_type        : <0x14>
    <30a>   DW_AT_external    : 1
    <30b>   DW_AT_location    : 5 byte block: 3 2a 0 80 0 	(DW_OP_addr: 80002a)
 <1><311>: Abbrev Number: 47 (DW_TAG_variable)
    <312>   DW_AT_name        : (indirect string, offset: 0x109): UCSRC
    <316>   DW_AT_decl_file   : 0
    <317>   DW_AT_decl_line   : 0
    <318>   DW_AT_type        : <0x14>
    <31c>   DW_AT_external    : 1
    <31d>   DW_AT_location    : 5 byte block: 3 40 0 80 0 	(DW_OP_addr: 800040)
 <1><323>: Abbrev Number: 48 (DW_TAG_variable)
    <324>   DW_AT_name        : (indirect string, offset: 0x10f): UBRRH
    <328>   DW_AT_decl_file   : 0
    <329>   DW_AT_decl_line   : 0
    <32a>   DW_AT_type        : <0x14>
    <32e>   DW_AT_external    : 1
    <32f>   DW_AT_location    : 5 byte block: 3 40 0 80 0 	(DW_OP_addr: 800040)
 <1><335>: Abbrev Number: 49 (DW_TAG_variable)
    <336>   DW_AT_name        : (indirect string, offset: 0x115): UBRRL
    <33a>   DW_AT_decl_file   : 0
    <33b>   DW_AT_decl_line   : 0
    <33c>   DW_AT_type        : <0x14>
    <340>   DW_AT_external    : 1
    <341>   DW_AT_location    : 5 byte block: 3 29 0 80 0 	(DW_OP_addr: 800029)
 <1><347>: Abbrev Number: 50 (DW_TAG_variable)
    <348>   DW_AT_name        : (indirect string, offset: 0x11b): TWBR
    <34c>   DW_AT_decl_file   : 0
    <34d>   DW_AT_decl_line   : 0
    <34e>   DW_AT_type        : <0x14>
    <352>   DW_AT_external    : 1
    <353>   DW_AT_location    : 5 byte block: 3 20 0 80 0 	(DW_OP_addr: 800020)
 <1><359>: Abbrev Number: 51 (DW_TAG_variable)
    <35a>   DW_AT_name        : (indirect string, offset: 0x120): TWCR
    <35e>   DW_AT_decl_file   : 0
    <35f>   DW_AT_decl_line   : 0
    <360>   DW_AT_type        : <0x14>
    <364>   DW_AT_external    : 1
    <365>   DW_AT_location    : 5 byte block: 3 56 0 80 0 	(DW_OP_addr: 800056)
 <1><36b>: Abbrev Number: 52 (DW_TAG_variable)
    <36c>   DW_AT_name        : (indirect string, offset: 0x125): TWSR
    <370>   DW_AT_decl_file   : 0
    <371>   DW_AT_decl_line   : 0
    <372>   DW_AT_type        : <0x14>
    <376>   DW_AT_external    : 1
    <377>   DW_AT_location    : 5 byte block: 3 21 0 80 0 	(DW_OP_addr: 800021)
 <1><37d>: Abbrev Number: 53 (DW_TAG_variable)
    <37e>   DW_AT_name        : (indirect string, offset: 0x12a): TWDR
    <382>   DW_AT_decl_file   : 0
    <383>   DW_AT_decl_line   : 0
    <384>   DW_AT_type        : <0x14>
    <388>   DW_AT_external    : 1
    <389>   DW_AT_location    : 5 byte block: 3 23 0 80 0 	(DW_OP_addr: 800023)
 <1><38f>: Abbrev Number: 54 (DW_TAG_variable)
    <390>   DW_AT_name        : (indirect string, offset: 0x12f): TWAR
    <394>   DW_AT_decl_file   : 0
    <395>   DW_AT_decl_line   : 0
    <396>   DW_AT_type        : <0x14>
    <39a>   DW_AT_external    : 1
    <39b>   DW_AT_location    : 5 byte block: 3 22 0 80 0 	(DW_OP_addr: 800022)
 <1><3a1>: Abbrev Number: 55 (DW_TAG_variable)
    <3a2>   DW_AT_name        : (indirect string, offset: 0x134): SFIOR
    <3a6>   DW_AT_decl_file   : 0
    <3a7>   DW_AT_decl_line   : 0
    <3a8>   DW_AT_type        : <0x14>
    <3ac>   DW_AT_external    : 1
    <3ad>   DW_AT_location    : 5 byte block: 3 50 0 80 0 	(DW_OP_addr: 800050)
 <1><3b3>: Abbrev Number: 56 (DW_TAG_variable)
    <3b4>   DW_AT_name        : (indirect string, offset: 0x13a): ACSR
    <3b8>   DW_AT_decl_file   : 0
    <3b9>   DW_AT_decl_line   : 0
    <3ba>   DW_AT_type        : <0x14>
    <3be>   DW_AT_external    : 1
    <3bf>   DW_AT_location    : 5 byte block: 3 28 0 80 0 	(DW_OP_addr: 800028)
 <1><3c5>: Abbrev Number: 57 (DW_TAG_variable)
    <3c6>   DW_AT_name        : (indirect string, offset: 0x13f): ADMUX
    <3ca>   DW_AT_decl_file   : 0
    <3cb>   DW_AT_decl_line   : 0
    <3cc>   DW_AT_type        : <0x14>
    <3d0>   DW_AT_external    : 1
    <3d1>   DW_AT_location    : 5 byte block: 3 27 0 80 0 	(DW_OP_addr: 800027)
 <1><3d7>: Abbrev Number: 58 (DW_TAG_variable)
    <3d8>   DW_AT_name        : (indirect string, offset: 0x145): ADCSRA
    <3dc>   DW_AT_decl_file   : 0
    <3dd>   DW_AT_decl_line   : 0
    <3de>   DW_AT_type        : <0x14>
    <3e2>   DW_AT_external    : 1
    <3e3>   DW_AT_location    : 5 byte block: 3 26 0 80 0 	(DW_OP_addr: 800026)
 <1><3e9>: Abbrev Number: 59 (DW_TAG_variable)
    <3ea>   DW_AT_name        : (indirect string, offset: 0x14c): ADC
    <3ee>   DW_AT_decl_file   : 0
    <3ef>   DW_AT_decl_line   : 0
    <3f0>   DW_AT_type        : <0x1b>
    <3f4>   DW_AT_external    : 1
    <3f5>   DW_AT_location    : 5 byte block: 3 24 0 80 0 	(DW_OP_addr: 800024)
 <1><3fb>: Abbrev Number: 60 (DW_TAG_variable)
    <3fc>   DW_AT_name        : (indirect string, offset: 0x150): SFIOR
    <400>   DW_AT_decl_file   : 0
    <401>   DW_AT_decl_line   : 0
    <402>   DW_AT_type        : <0x14>
    <406>   DW_AT_external    : 1
    <407>   DW_AT_location    : 5 byte block: 3 50 0 80 0 	(DW_OP_addr: 800050)
 <1><40d>: Abbrev Number: 61 (DW_TAG_variable)
    <40e>   DW_AT_name        : (indirect string, offset: 0x156): OCDR
    <412>   DW_AT_decl_file   : 0
    <413>   DW_AT_decl_line   : 0
    <414>   DW_AT_type        : <0x14>
    <418>   DW_AT_external    : 1
    <419>   DW_AT_location    : 5 byte block: 3 51 0 80 0 	(DW_OP_addr: 800051)
 <1><41f>: Abbrev Number: 62 (DW_TAG_variable)
    <420>   DW_AT_name        : (indirect string, offset: 0x15b): MCUCSR
    <424>   DW_AT_decl_file   : 0
    <425>   DW_AT_decl_line   : 0
    <426>   DW_AT_type        : <0x14>
    <42a>   DW_AT_external    : 1
    <42b>   DW_AT_location    : 5 byte block: 3 54 0 80 0 	(DW_OP_addr: 800054)
 <1><431>: Abbrev Number: 63 (DW_TAG_variable)
    <432>   DW_AT_name        : (indirect string, offset: 0x162): SPMCSR
    <436>   DW_AT_decl_file   : 0
    <437>   DW_AT_decl_line   : 0
    <438>   DW_AT_type        : <0x14>
    <43c>   DW_AT_external    : 1
    <43d>   DW_AT_location    : 5 byte block: 3 57 0 80 0 	(DW_OP_addr: 800057)
 <1><443>: Abbrev Number: 64 (DW_TAG_variable)
    <444>   DW_AT_name        : (indirect string, offset: 0x169): PORTA
    <448>   DW_AT_decl_file   : 0
    <449>   DW_AT_decl_line   : 0
    <44a>   DW_AT_type        : <0x14>
    <44e>   DW_AT_external    : 1
    <44f>   DW_AT_location    : 5 byte block: 3 3b 0 80 0 	(DW_OP_addr: 80003b)
 <1><455>: Abbrev Number: 65 (DW_TAG_variable)
    <456>   DW_AT_name        : (indirect string, offset: 0x16f): DDRA
    <45a>   DW_AT_decl_file   : 0
    <45b>   DW_AT_decl_line   : 0
    <45c>   DW_AT_type        : <0x14>
    <460>   DW_AT_external    : 1
    <461>   DW_AT_location    : 5 byte block: 3 3a 0 80 0 	(DW_OP_addr: 80003a)
 <1><467>: Abbrev Number: 66 (DW_TAG_variable)
    <468>   DW_AT_name        : (indirect string, offset: 0x174): PINA
    <46c>   DW_AT_decl_file   : 0
    <46d>   DW_AT_decl_line   : 0
    <46e>   DW_AT_type        : <0x14>
    <472>   DW_AT_external    : 1
    <473>   DW_AT_location    : 5 byte block: 3 39 0 80 0 	(DW_OP_addr: 800039)
 <1><479>: Abbrev Number: 67 (DW_TAG_variable)
    <47a>   DW_AT_name        : (indirect string, offset: 0x179): PORTB
    <47e>   DW_AT_decl_file   : 0
    <47f>   DW_AT_decl_line   : 0
    <480>   DW_AT_type        : <0x14>
    <484>   DW_AT_external    : 1
    <485>   DW_AT_location    : 5 byte block: 3 38 0 80 0 	(DW_OP_addr: 800038)
 <1><48b>: Abbrev Number: 68 (DW_TAG_variable)
    <48c>   DW_AT_name        : (indirect string, offset: 0x17f): DDRB
    <490>   DW_AT_decl_file   : 0
    <491>   DW_AT_decl_line   : 0
    <492>   DW_AT_type        : <0x14>
    <496>   DW_AT_external    : 1
    <497>   DW_AT_location    : 5 byte block: 3 37 0 80 0 	(DW_OP_addr: 800037)
 <1><49d>: Abbrev Number: 69 (DW_TAG_variable)
    <49e>   DW_AT_name        : (indirect string, offset: 0x184): PINB
    <4a2>   DW_AT_decl_file   : 0
    <4a3>   DW_AT_decl_line   : 0
    <4a4>   DW_AT_type        : <0x14>
    <4a8>   DW_AT_external    : 1
    <4a9>   DW_AT_location    : 5 byte block: 3 36 0 80 0 	(DW_OP_addr: 800036)
 <1><4af>: Abbrev Number: 70 (DW_TAG_variable)
    <4b0>   DW_AT_name        : (indirect string, offset: 0x189): PORTC
    <4b4>   DW_AT_decl_file   : 0
    <4b5>   DW_AT_decl_line   : 0
    <4b6>   DW_AT_type        : <0x14>
    <4ba>   DW_AT_external    : 1
    <4bb>   DW_AT_location    : 5 byte block: 3 35 0 80 0 	(DW_OP_addr: 800035)
 <1><4c1>: Abbrev Number: 71 (DW_TAG_variable)
    <4c2>   DW_AT_name        : (indirect string, offset: 0x18f): DDRC
    <4c6>   DW_AT_decl_file   : 0
    <4c7>   DW_AT_decl_line   : 0
    <4c8>   DW_AT_type        : <0x14>
    <4cc>   DW_AT_external    : 1
    <4cd>   DW_AT_location    : 5 byte block: 3 34 0 80 0 	(DW_OP_addr: 800034)
 <1><4d3>: Abbrev Number: 72 (DW_TAG_variable)
    <4d4>   DW_AT_name        : (indirect string, offset: 0x194): PINC
    <4d8>   DW_AT_decl_file   : 0
    <4d9>   DW_AT_decl_line   : 0
    <4da>   DW_AT_type        : <0x14>
    <4de>   DW_AT_external    : 1
    <4df>   DW_AT_location    : 5 byte block: 3 33 0 80 0 	(DW_OP_addr: 800033)
 <1><4e5>: Abbrev Number: 73 (DW_TAG_variable)
    <4e6>   DW_AT_name        : (indirect string, offset: 0x199): PORTD
    <4ea>   DW_AT_decl_file   : 0
    <4eb>   DW_AT_decl_line   : 0
    <4ec>   DW_AT_type        : <0x14>
    <4f0>   DW_AT_external    : 1
    <4f1>   DW_AT_location    : 5 byte block: 3 32 0 80 0 	(DW_OP_addr: 800032)
 <1><4f7>: Abbrev Number: 74 (DW_TAG_variable)
    <4f8>   DW_AT_name        : (indirect string, offset: 0x19f): DDRD
    <4fc>   DW_AT_decl_file   : 0
    <4fd>   DW_AT_decl_line   : 0
    <4fe>   DW_AT_type        : <0x14>
    <502>   DW_AT_external    : 1
    <503>   DW_AT_location    : 5 byte block: 3 31 0 80 0 	(DW_OP_addr: 800031)
 <1><509>: Abbrev Number: 75 (DW_TAG_variable)
    <50a>   DW_AT_name        : (indirect string, offset: 0x1a4): PIND
    <50e>   DW_AT_decl_file   : 0
    <50f>   DW_AT_decl_line   : 0
    <510>   DW_AT_type        : <0x14>
    <514>   DW_AT_external    : 1
    <515>   DW_AT_location    : 5 byte block: 3 30 0 80 0 	(DW_OP_addr: 800030)
 <1><51b>: Abbrev Number: 76 (DW_TAG_variable)
    <51c>   DW_AT_name        : (indirect string, offset: 0x1a9): WDTCR
    <520>   DW_AT_decl_file   : 0
    <521>   DW_AT_decl_line   : 0
    <522>   DW_AT_type        : <0x14>
    <526>   DW_AT_external    : 1
    <527>   DW_AT_location    : 5 byte block: 3 41 0 80 0 	(DW_OP_addr: 800041)
 <1><52d>: Abbrev Number: 0

Contents of the .debug_abbrev section:

  Number TAG (0x0)
   1      DW_TAG_compile_unit    [has children]
    DW_AT_producer     DW_FORM_strp
    DW_AT_stmt_list    DW_FORM_data4
    DW_AT value: 0     DW_FORM value: 0
   2      DW_TAG_base_type    [no children]
    DW_AT_name         DW_FORM_strp
    DW_AT_byte_size    DW_FORM_data1
    DW_AT_encoding     DW_FORM_data1
    DW_AT value: 0     DW_FORM value: 0
   3      DW_TAG_base_type    [no children]
    DW_AT_name         DW_FORM_strp
    DW_AT_byte_size    DW_FORM_data1
    DW_AT_encoding     DW_FORM_data1
    DW_AT value: 0     DW_FORM value: 0
   4      DW_TAG_array_type    [has children]
    DW_AT_type         DW_FORM_ref4
    DW_AT value: 0     DW_FORM value: 0
   5      DW_TAG_subrange_type    [no children]
    DW_AT_type         DW_FORM_ref4
    DW_AT_upper_bound  DW_FORM_data2
    DW_AT value: 0     DW_FORM value: 0
   6      DW_TAG_variable    [no children]
    DW_AT_name         DW_FORM_strp
    DW_AT_decl_file    DW_FORM_data1
    DW_AT_decl_line    DW_FORM_data1
    DW_AT_type         DW_FORM_ref4
    DW_AT_external     DW_FORM_flag
    DW_AT_location     DW_FORM_block1
    DW_AT value: 0     DW_FORM value: 0
   7      DW_TAG_variable    [no children]
    DW_AT_name         DW_FORM_strp
    DW_AT_decl_file    DW_FORM_data1
    DW_AT_decl_line    DW_FORM_data1
    DW_AT_type         DW_FORM_ref4
    DW_AT_external     DW_FORM_flag
    DW_AT_location     DW_FORM_block1
    DW_AT value: 0     DW_FORM value: 0
   8      DW_TAG_variable    [no children]
    DW_AT_name         DW_FORM_strp
    DW_AT_decl_file    DW_FORM_data1
    DW_AT_decl_line    DW_FORM_data1
    DW_AT_type         DW_FORM_ref4
    DW_AT_external     DW_FORM_flag
    DW_AT_location     DW_FORM_block1
    DW_AT value: 0     DW_FORM value: 0
   9      DW_TAG_variable    [no children]
    DW_AT_name         DW_FORM_strp
    DW_AT_decl_file    DW_FORM_data1
    DW_AT_decl_line    DW_FORM_data1
    DW_AT_type         DW_FORM_ref4
    DW_AT_external     DW_FORM_flag
    DW_AT_location     DW_FORM_block1
    DW_AT value: 0     DW_FORM value: 0
   10      DW_TAG_variable    [no children]
    DW_AT_name         DW_FORM_strp
    DW_AT_decl_file    DW_FORM_data1
    DW_AT_decl_line    DW_FORM_data1
    DW_AT_type         DW_FORM_ref4
    DW_AT_external     DW_FORM_flag
    DW_AT_location     DW_FORM_block1
    DW_AT value: 0     DW_FORM value: 0
   11      DW_TAG_variable    [no children]
    DW_AT_name         DW_FORM_strp
    DW_AT_decl_file    DW_FORM_data1
    DW_AT_decl_line    DW_FORM_data1
    DW_AT_type         DW_FORM_ref4
    DW_AT_external     DW_FORM_flag
    DW_AT_location     DW_FORM_block1
    DW_AT value: 0     DW_FORM value: 0
   12      DW_TAG_variable    [no children]
    DW_AT_name         DW_FORM_strp
    DW_AT_decl_file    DW_FORM_data1
    DW_AT_decl_line    DW_FORM_data1
    DW_AT_type         DW_FORM_ref4
    DW_AT_external     DW_FORM_flag
    DW_AT_location     DW_FORM_block1
    DW_AT value: 0     DW_FORM value: 0
   13      DW_TAG_variable    [no children]
    DW_AT_name         DW_FORM_strp
    DW_AT_decl_file    DW_FORM_data1
    DW_AT_decl_line    DW_FORM_data1
    DW_AT_type         DW_FORM_ref4
    DW_AT_external     DW_FORM_flag
    DW_AT_location     DW_FORM_block1
    DW_AT value: 0     DW_FORM value: 0
   14      DW_TAG_variable    [no children]
    DW_AT_name         DW_FORM_strp
    DW_AT_decl_file    DW_FORM_data1
    DW_AT_decl_line    DW_FORM_data1
    DW_AT_type         DW_FORM_ref4
    DW_AT_external     DW_FORM_flag
    DW_AT_location     DW_FORM_block1
    DW_AT value: 0     DW_FORM value: 0
   15      DW_TAG_variable    [no children]
    DW_AT_name         DW_FORM_strp
    DW_AT_decl_file    DW_FORM_data1
    DW_AT_decl_line    DW_FORM_data1
    DW_AT_type         DW_FORM_ref4
    DW_AT_external     DW_FORM_flag
    DW_AT_location     DW_FORM_block1
    DW_AT value: 0     DW_FORM value: 0
   16      DW_TAG_variable    [no children]
    DW_AT_name         DW_FORM_strp
    DW_AT_decl_file    DW_FORM_data1
    DW_AT_decl_line    DW_FORM_data1
    DW_AT_type         DW_FORM_ref4
    DW_AT_external     DW_FORM_flag
    DW_AT_location     DW_FORM_block1
    DW_AT value: 0     DW_FORM value: 0
   17      DW_TAG_variable    [no children]
    DW_AT_name         DW_FORM_strp
    DW_AT_decl_file    DW_FORM_data1
    DW_AT_decl_line    DW_FORM_data1
    DW_AT_type         DW_FORM_ref4
    DW_AT_external     DW_FORM_flag
    DW_AT_location     DW_FORM_block1
    DW_AT value: 0     DW_FORM value: 0
   18      DW_TAG_variable    [no children]
    DW_AT_name         DW_FORM_strp
    DW_AT_decl_file    DW_FORM_data1
    DW_AT_decl_line    DW_FORM_data1
    DW_AT_type         DW_FORM_ref4
    DW_AT_external     DW_FORM_flag
    DW_AT_location     DW_FORM_block1
    DW_AT value: 0     DW_FORM value: 0
   19      DW_TAG_variable    [no children]
    DW_AT_name         DW_FORM_strp
    DW_AT_decl_file    DW_FORM_data1
    DW_AT_decl_line    DW_FORM_data1
    DW_AT_type         DW_FORM_ref4
    DW_AT_external     DW_FORM_flag
    DW_AT_location     DW_FORM_block1
    DW_AT value: 0     DW_FORM value: 0
   20      DW_TAG_variable    [no children]
    DW_AT_name         DW_FORM_strp
    DW_AT_decl_file    DW_FORM_data1
    DW_AT_decl_line    DW_FORM_data1
    DW_AT_type         DW_FORM_ref4
    DW_AT_external     DW_FORM_flag
    DW_AT_location     DW_FORM_block1
    DW_AT value: 0     DW_FORM value: 0
   21      DW_TAG_variable    [no children]
    DW_AT_name         DW_FORM_strp
    DW_AT_decl_file    DW_FORM_data1
    DW_AT_decl_line    DW_FORM_data1
    DW_AT_type         DW_FORM_ref4
    DW_AT_external     DW_FORM_flag
    DW_AT_location     DW_FORM_block1
    DW_AT value: 0     DW_FORM value: 0
   22      DW_TAG_variable    [no children]
    DW_AT_name         DW_FORM_strp
    DW_AT_decl_file    DW_FORM_data1
    DW_AT_decl_line    DW_FORM_data1
    DW_AT_type         DW_FORM_ref4
    DW_AT_external     DW_FORM_flag
    DW_AT_location     DW_FORM_block1
    DW_AT value: 0     DW_FORM value: 0
   23      DW_TAG_variable    [no children]
    DW_AT_name         DW_FORM_strp
    DW_AT_decl_file    DW_FORM_data1
    DW_AT_decl_line    DW_FORM_data1
    DW_AT_type         DW_FORM_ref4
    DW_AT_external     DW_FORM_flag
    DW_AT_location     DW_FORM_block1
    DW_AT value: 0     DW_FORM value: 0
   24      DW_TAG_variable    [no children]
    DW_AT_name         DW_FORM_strp
    DW_AT_decl_file    DW_FORM_data1
    DW_AT_decl_line    DW_FORM_data1
    DW_AT_type         DW_FORM_ref4
    DW_AT_external     DW_FORM_flag
    DW_AT_location     DW_FORM_block1
    DW_AT value: 0     DW_FORM value: 0
   25      DW_TAG_variable    [no children]
    DW_AT_name         DW_FORM_strp
    DW_AT_decl_file    DW_FORM_data1
    DW_AT_decl_line    DW_FORM_data1
    DW_AT_type         DW_FORM_ref4
    DW_AT_external     DW_FORM_flag
    DW_AT_location     DW_FORM_block1
    DW_AT value: 0     DW_FORM value: 0
   26      DW_TAG_variable    [no children]
    DW_AT_name         DW_FORM_strp
    DW_AT_decl_file    DW_FORM_data1
    DW_AT_decl_line    DW_FORM_data1
    DW_AT_type         DW_FORM_ref4
    DW_AT_external     DW_FORM_flag
    DW_AT_location     DW_FORM_block1
    DW_AT value: 0     DW_FORM value: 0
   27      DW_TAG_variable    [no children]
    DW_AT_name         DW_FORM_strp
    DW_AT_decl_file    DW_FORM_data1
    DW_AT_decl_line    DW_FORM_data1
    DW_AT_type         DW_FORM_ref4
    DW_AT_external     DW_FORM_flag
    DW_AT_location     DW_FORM_block1
    DW_AT value: 0     DW_FORM value: 0
   28      DW_TAG_variable    [no children]
    DW_AT_name         DW_FORM_strp
    DW_AT_decl_file    DW_FORM_data1
    DW_AT_decl_line    DW_FORM_data1
    DW_AT_type         DW_FORM_ref4
    DW_AT_external     DW_FORM_flag
    DW_AT_location     DW_FORM_block1
    DW_AT value: 0     DW_FORM value: 0
   29      DW_TAG_variable    [no children]
    DW_AT_name         DW_FORM_strp
    DW_AT_decl_file    DW_FORM_data1
    DW_AT_decl_line    DW_FORM_data1
    DW_AT_type         DW_FORM_ref4
    DW_AT_external     DW_FORM_flag
    DW_AT_location     DW_FORM_block1
    DW_AT value: 0     DW_FORM value: 0
   30      DW_TAG_variable    [no children]
    DW_AT_name         DW_FORM_strp
    DW_AT_decl_file    DW_FORM_data1
    DW_AT_decl_line    DW_FORM_data1
    DW_AT_type         DW_FORM_ref4
    DW_AT_external     DW_FORM_flag
    DW_AT_location     DW_FORM_block1
    DW_AT value: 0     DW_FORM value: 0
   31      DW_TAG_variable    [no children]
    DW_AT_name         DW_FORM_strp
    DW_AT_decl_file    DW_FORM_data1
    DW_AT_decl_line    DW_FORM_data1
    DW_AT_type         DW_FORM_ref4
    DW_AT_external     DW_FORM_flag
    DW_AT_location     DW_FORM_block1
    DW_AT value: 0     DW_FORM value: 0
   32      DW_TAG_variable    [no children]
    DW_AT_name         DW_FORM_strp
    DW_AT_decl_file    DW_FORM_data1
    DW_AT_decl_line    DW_FORM_data1
    DW_AT_type         DW_FORM_ref4
    DW_AT_external     DW_FORM_flag
    DW_AT_location     DW_FORM_block1
    DW_AT value: 0     DW_FORM value: 0
   33      DW_TAG_variable    [no children]
    DW_AT_name         DW_FORM_strp
    DW_AT_decl_file    DW_FORM_data1
    DW_AT_decl_line    DW_FORM_data1
    DW_AT_type         DW_FORM_ref4
    DW_AT_external     DW_FORM_flag
    DW_AT_location     DW_FORM_block1
    DW_AT value: 0     DW_FORM value: 0
   34      DW_TAG_variable    [no children]
    DW_AT_name         DW_FORM_strp
    DW_AT_decl_file    DW_FORM_data1
    DW_AT_decl_line    DW_FORM_data1
    DW_AT_type         DW_FORM_ref4
    DW_AT_external     DW_FORM_flag
    DW_AT_location     DW_FORM_block1
    DW_AT value: 0     DW_FORM value: 0
   35      DW_TAG_variable    [no children]
    DW_AT_name         DW_FORM_strp
    DW_AT_decl_file    DW_FORM_data1
    DW_AT_decl_line    DW_FORM_data1
    DW_AT_type         DW_FORM_ref4
    DW_AT_external     DW_FORM_flag
    DW_AT_location     DW_FORM_block1
    DW_AT value: 0     DW_FORM value: 0
   36      DW_TAG_variable    [no children]
    DW_AT_name         DW_FORM_strp
    DW_AT_decl_file    DW_FORM_data1
    DW_AT_decl_line    DW_FORM_data1
    DW_AT_type         DW_FORM_ref4
    DW_AT_external     DW_FORM_flag
    DW_AT_location     DW_FORM_block1
    DW_AT value: 0     DW_FORM value: 0
   37      DW_TAG_variable    [no children]
    DW_AT_name         DW_FORM_strp
    DW_AT_decl_file    DW_FORM_data1
    DW_AT_decl_line    DW_FORM_data1
    DW_AT_type         DW_FORM_ref4
    DW_AT_external     DW_FORM_flag
    DW_AT_location     DW_FORM_block1
    DW_AT value: 0     DW_FORM value: 0
   38      DW_TAG_variable    [no children]
    DW_AT_name         DW_FORM_strp
    DW_AT_decl_file    DW_FORM_data1
    DW_AT_decl_line    DW_FORM_data1
    DW_AT_type         DW_FORM_ref4
    DW_AT_external     DW_FORM_flag
    DW_AT_location     DW_FORM_block1
    DW_AT value: 0     DW_FORM value: 0
   39      DW_TAG_variable    [no children]
    DW_AT_name         DW_FORM_strp
    DW_AT_decl_file    DW_FORM_data1
    DW_AT_decl_line    DW_FORM_data1
    DW_AT_type         DW_FORM_ref4
    DW_AT_external     DW_FORM_flag
    DW_AT_location     DW_FORM_block1
    DW_AT value: 0     DW_FORM value: 0
   40      DW_TAG_variable    [no children]
    DW_AT_name         DW_FORM_strp
    DW_AT_decl_file    DW_FORM_data1
    DW_AT_decl_line    DW_FORM_data1
    DW_AT_type         DW_FORM_ref4
    DW_AT_external     DW_FORM_flag
    DW_AT_location     DW_FORM_block1
    DW_AT value: 0     DW_FORM value: 0
   41      DW_TAG_variable    [no children]
    DW_AT_name         DW_FORM_strp
    DW_AT_decl_file    DW_FORM_data1
    DW_AT_decl_line    DW_FORM_data1
    DW_AT_type         DW_FORM_ref4
    DW_AT_external     DW_FORM_flag
    DW_AT_location     DW_FORM_block1
    DW_AT value: 0     DW_FORM value: 0
   42      DW_TAG_variable    [no children]
    DW_AT_name         DW_FORM_strp
    DW_AT_decl_file    DW_FORM_data1
    DW_AT_decl_line    DW_FORM_data1
    DW_AT_type         DW_FORM_ref4
    DW_AT_external     DW_FORM_flag
    DW_AT_location     DW_FORM_block1
    DW_AT value: 0     DW_FORM value: 0
   43      DW_TAG_variable    [no children]
    DW_AT_name         DW_FORM_strp
    DW_AT_decl_file    DW_FORM_data1
    DW_AT_decl_line    DW_FORM_data1
    DW_AT_type         DW_FORM_ref4
    DW_AT_external     DW_FORM_flag
    DW_AT_location     DW_FORM_block1
    DW_AT value: 0     DW_FORM value: 0
   44      DW_TAG_variable    [no children]
    DW_AT_name         DW_FORM_strp
    DW_AT_decl_file    DW_FORM_data1
    DW_AT_decl_line    DW_FORM_data1
    DW_AT_type         DW_FORM_ref4
    DW_AT_external     DW_FORM_flag
    DW_AT_location     DW_FORM_block1
    DW_AT value: 0     DW_FORM value: 0
   45      DW_TAG_variable    [no children]
    DW_AT_name         DW_FORM_strp
    DW_AT_decl_file    DW_FORM_data1
    DW_AT_decl_line    DW_FORM_data1
    DW_AT_type         DW_FORM_ref4
    DW_AT_external     DW_FORM_flag
    DW_AT_location     DW_FORM_block1
    DW_AT value: 0     DW_FORM value: 0
   46      DW_TAG_variable    [no children]
    DW_AT_name         DW_FORM_strp
    DW_AT_decl_file    DW_FORM_data1
    DW_AT_decl_line    DW_FORM_data1
    DW_AT_type         DW_FORM_ref4
    DW_AT_external     DW_FORM_flag
    DW_AT_location     DW_FORM_block1
    DW_AT value: 0     DW_FORM value: 0
   47      DW_TAG_variable    [no children]
    DW_AT_name         DW_FORM_strp
    DW_AT_decl_file    DW_FORM_data1
    DW_AT_decl_line    DW_FORM_data1
    DW_AT_type         DW_FORM_ref4
    DW_AT_external     DW_FORM_flag
    DW_AT_location     DW_FORM_block1
    DW_AT value: 0     DW_FORM value: 0
   48      DW_TAG_variable    [no children]
    DW_AT_name         DW_FORM_strp
    DW_AT_decl_file    DW_FORM_data1
    DW_AT_decl_line    DW_FORM_data1
    DW_AT_type         DW_FORM_ref4
    DW_AT_external     DW_FORM_flag
    DW_AT_location     DW_FORM_block1
    DW_AT value: 0     DW_FORM value: 0
   49      DW_TAG_variable    [no children]
    DW_AT_name         DW_FORM_strp
    DW_AT_decl_file    DW_FORM_data1
    DW_AT_decl_line    DW_FORM_data1
    DW_AT_type         DW_FORM_ref4
    DW_AT_external     DW_FORM_flag
    DW_AT_location     DW_FORM_block1
    DW_AT value: 0     DW_FORM value: 0
   50      DW_TAG_variable    [no children]
    DW_AT_name         DW_FORM_strp
    DW_AT_decl_file    DW_FORM_data1
    DW_AT_decl_line    DW_FORM_data1
    DW_AT_type         DW_FORM_ref4
    DW_AT_external     DW_FORM_flag
    DW_AT_location     DW_FORM_block1
    DW_AT value: 0     DW_FORM value: 0
   51      DW_TAG_variable    [no children]
    DW_AT_name         DW_FORM_strp
    DW_AT_decl_file    DW_FORM_data1
    DW_AT_decl_line    DW_FORM_data1
    DW_AT_type         DW_FORM_ref4
    DW_AT_external     DW_FORM_flag
    DW_AT_location     DW_FORM_block1
    DW_AT value: 0     DW_FORM value: 0
   52      DW_TAG_variable    [no children]
    DW_AT_name         DW_FORM_strp
    DW_AT_decl_file    DW_FORM_data1
    DW_AT_decl_line    DW_FORM_data1
    DW_AT_type         DW_FORM_ref4
    DW_AT_external     DW_FORM_flag
    DW_AT_location     DW_FORM_block1
    DW_AT value: 0     DW_FORM value: 0
   53      DW_TAG_variable    [no children]
    DW_AT_name         DW_FORM_strp
    DW_AT_decl_file    DW_FORM_data1
    DW_AT_decl_line    DW_FORM_data1
    DW_AT_type         DW_FORM_ref4
    DW_AT_external     DW_FORM_flag
    DW_AT_location     DW_FORM_block1
    DW_AT value: 0     DW_FORM value: 0
   54      DW_TAG_variable    [no children]
    DW_AT_name         DW_FORM_strp
    DW_AT_decl_file    DW_FORM_data1
    DW_AT_decl_line    DW_FORM_data1
    DW_AT_type         DW_FORM_ref4
    DW_AT_external     DW_FORM_flag
    DW_AT_location     DW_FORM_block1
    DW_AT value: 0     DW_FORM value: 0
   55      DW_TAG_variable    [no children]
    DW_AT_name         DW_FORM_strp
    DW_AT_decl_file    DW_FORM_data1
    DW_AT_decl_line    DW_FORM_data1
    DW_AT_type         DW_FORM_ref4
    DW_AT_external     DW_FORM_flag
    DW_AT_location     DW_FORM_block1
    DW_AT value: 0     DW_FORM value: 0
   56      DW_TAG_variable    [no children]
    DW_AT_name         DW_FORM_strp
    DW_AT_decl_file    DW_FORM_data1
    DW_AT_decl_line    DW_FORM_data1
    DW_AT_type         DW_FORM_ref4
    DW_AT_external     DW_FORM_flag
    DW_AT_location     DW_FORM_block1
    DW_AT value: 0     DW_FORM value: 0
   57      DW_TAG_variable    [no children]
    DW_AT_name         DW_FORM_strp
    DW_AT_decl_file    DW_FORM_data1
    DW_AT_decl_line    DW_FORM_data1
    DW_AT_type         DW_FORM_ref4
    DW_AT_external     DW_FORM_flag
    DW_AT_location     DW_FORM_block1
    DW_AT value: 0     DW_FORM value: 0
   58      DW_TAG_variable    [no children]
    DW_AT_name         DW_FORM_strp
    DW_AT_decl_file    DW_FORM_data1
    DW_AT_decl_line    DW_FORM_data1
    DW_AT_type         DW_FORM_ref4
    DW_AT_external     DW_FORM_flag
    DW_AT_location     DW_FORM_block1
    DW_AT value: 0     DW_FORM value: 0
   59      DW_TAG_variable    [no children]
    DW_AT_name         DW_FORM_strp
    DW_AT_decl_file    DW_FORM_data1
    DW_AT_decl_line    DW_FORM_data1
    DW_AT_type         DW_FORM_ref4
    DW_AT_external     DW_FORM_flag
    DW_AT_location     DW_FORM_block1
    DW_AT value: 0     DW_FORM value: 0
   60      DW_TAG_variable    [no children]
    DW_AT_name         DW_FORM_strp
    DW_AT_decl_file    DW_FORM_data1
    DW_AT_decl_line    DW_FORM_data1
    DW_AT_type         DW_FORM_ref4
    DW_AT_external     DW_FORM_flag
    DW_AT_location     DW_FORM_block1
    DW_AT value: 0     DW_FORM value: 0
   61      DW_TAG_variable    [no children]
    DW_AT_name         DW_FORM_strp
    DW_AT_decl_file    DW_FORM_data1
    DW_AT_decl_line    DW_FORM_data1
    DW_AT_type         DW_FORM_ref4
    DW_AT_external     DW_FORM_flag
    DW_AT_location     DW_FORM_block1
    DW_AT value: 0     DW_FORM value: 0
   62      DW_TAG_variable    [no children]
    DW_AT_name         DW_FORM_strp
    DW_AT_decl_file    DW_FORM_data1
    DW_AT_decl_line    DW_FORM_data1
    DW_AT_type         DW_FORM_ref4
    DW_AT_external     DW_FORM_flag
    DW_AT_location     DW_FORM_block1
    DW_AT value: 0     DW_FORM value: 0
   63      DW_TAG_variable    [no children]
    DW_AT_name         DW_FORM_strp
    DW_AT_decl_file    DW_FORM_data1
    DW_AT_decl_line    DW_FORM_data1
    DW_AT_type         DW_FORM_ref4
    DW_AT_external     DW_FORM_flag
    DW_AT_location     DW_FORM_block1
    DW_AT value: 0     DW_FORM value: 0
   64      DW_TAG_variable    [no children]
    DW_AT_name         DW_FORM_strp
    DW_AT_decl_file    DW_FORM_data1
    DW_AT_decl_line    DW_FORM_data1
    DW_AT_type         DW_FORM_ref4
    DW_AT_external     DW_FORM_flag
    DW_AT_location     DW_FORM_block1
    DW_AT value: 0     DW_FORM value: 0
   65      DW_TAG_variable    [no children]
    DW_AT_name         DW_FORM_strp
    DW_AT_decl_file    DW_FORM_data1
    DW_AT_decl_line    DW_FORM_data1
    DW_AT_type         DW_FORM_ref4
    DW_AT_external     DW_FORM_flag
    DW_AT_location     DW_FORM_block1
    DW_AT value: 0     DW_FORM value: 0
   66      DW_TAG_variable    [no children]
    DW_AT_name         DW_FORM_strp
    DW_AT_decl_file    DW_FORM_data1
    DW_AT_decl_line    DW_FORM_data1
    DW_AT_type         DW_FORM_ref4
    DW_AT_external     DW_FORM_flag
    DW_AT_location     DW_FORM_block1
    DW_AT value: 0     DW_FORM value: 0
   67      DW_TAG_variable    [no children]
    DW_AT_name         DW_FORM_strp
    DW_AT_decl_file    DW_FORM_data1
    DW_AT_decl_line    DW_FORM_data1
    DW_AT_type         DW_FORM_ref4
    DW_AT_external     DW_FORM_flag
    DW_AT_location     DW_FORM_block1
    DW_AT value: 0     DW_FORM value: 0
   68      DW_TAG_variable    [no children]
    DW_AT_name         DW_FORM_strp
    DW_AT_decl_file    DW_FORM_data1
    DW_AT_decl_line    DW_FORM_data1
    DW_AT_type         DW_FORM_ref4
    DW_AT_external     DW_FORM_flag
    DW_AT_location     DW_FORM_block1
    DW_AT value: 0     DW_FORM value: 0
   69      DW_TAG_variable    [no children]
    DW_AT_name         DW_FORM_strp
    DW_AT_decl_file    DW_FORM_data1
    DW_AT_decl_line    DW_FORM_data1
    DW_AT_type         DW_FORM_ref4
    DW_AT_external     DW_FORM_flag
    DW_AT_location     DW_FORM_block1
    DW_AT value: 0     DW_FORM value: 0
   70      DW_TAG_variable    [no children]
    DW_AT_name         DW_FORM_strp
    DW_AT_decl_file    DW_FORM_data1
    DW_AT_decl_line    DW_FORM_data1
    DW_AT_type         DW_FORM_ref4
    DW_AT_external     DW_FORM_flag
    DW_AT_location     DW_FORM_block1
    DW_AT value: 0     DW_FORM value: 0
   71      DW_TAG_variable    [no children]
    DW_AT_name         DW_FORM_strp
    DW_AT_decl_file    DW_FORM_data1
    DW_AT_decl_line    DW_FORM_data1
    DW_AT_type         DW_FORM_ref4
    DW_AT_external     DW_FORM_flag
    DW_AT_location     DW_FORM_block1
    DW_AT value: 0     DW_FORM value: 0
   72      DW_TAG_variable    [no children]
    DW_AT_name         DW_FORM_strp
    DW_AT_decl_file    DW_FORM_data1
    DW_AT_decl_line    DW_FORM_data1
    DW_AT_type         DW_FORM_ref4
    DW_AT_external     DW_FORM_flag
    DW_AT_location     DW_FORM_block1
    DW_AT value: 0     DW_FORM value: 0
   73      DW_TAG_variable    [no children]
    DW_AT_name         DW_FORM_strp
    DW_AT_decl_file    DW_FORM_data1
    DW_AT_decl_line    DW_FORM_data1
    DW_AT_type         DW_FORM_ref4
    DW_AT_external     DW_FORM_flag
    DW_AT_location     DW_FORM_block1
    DW_AT value: 0     DW_FORM value: 0
   74      DW_TAG_variable    [no children]
    DW_AT_name         DW_FORM_strp
    DW_AT_decl_file    DW_FORM_data1
    DW_AT_decl_line    DW_FORM_data1
    DW_AT_type         DW_FORM_ref4
    DW_AT_external     DW_FORM_flag
    DW_AT_location     DW_FORM_block1
    DW_AT value: 0     DW_FORM value: 0
   75      DW_TAG_variable    [no children]
    DW_AT_name         DW_FORM_strp
    DW_AT_decl_file    DW_FORM_data1
    DW_AT_decl_line    DW_FORM_data1
    DW_AT_type         DW_FORM_ref4
    DW_AT_external     DW_FORM_flag
    DW_AT_location     DW_FORM_block1
    DW_AT value: 0     DW_FORM value: 0
   76      DW_TAG_variable    [no children]
    DW_AT_name         DW_FORM_strp
    DW_AT_decl_file    DW_FORM_data1
    DW_AT_decl_line    DW_FORM_data1
    DW_AT_type         DW_FORM_ref4
    DW_AT_external     DW_FORM_flag
    DW_AT_location     DW_FORM_block1
    DW_AT value: 0     DW_FORM value: 0

Raw dump of debug contents of section .debug_line:

  Offset:                      0x0
  Length:                      22
  DWARF Version:               2
  Prologue Length:             16
  Minimum Instruction Length:  2
  Initial value of 'is_stmt':  1
  Line Base:                   -5
  Line Range:                  14
  Opcode Base:                 10

 Opcodes:
  Opcode 1 has 0 args
  Opcode 2 has 1 args
  Opcode 3 has 1 args
  Opcode 4 has 1 args
  Opcode 5 has 1 args
  Opcode 6 has 0 args
  Opcode 7 has 0 args
  Opcode 8 has 0 args
  Opcode 9 has 1 args

 The Directory Table is empty.

 The File Name Table is empty.

 No Line Number Statements.
Contents of the .debug_str section:

  0x00000000 6176722d 6c696263 20322e30 2e300075 avr-libc 2.0.0.u
  0x00000010 696e7438 5f740075 696e7431 365f7400 int8_t.uint16_t.
  0x00000020 5f5f6565 70726f6d 00544343 52300054 __eeprom.TCCR0.T
  0x00000030 434e5430 004f4352 30005449 4d534b00 CNT0.OCR0.TIMSK.
  0x00000040 54494652 00534649 4f520054 494d534b TIFR.SFIOR.TIMSK
  0x00000050 00544946 52005443 43523141 00544343 .TIFR.TCCR1A.TCC
  0x00000060 52314200 54434e54 31004f43 52314100 R1B.TCNT1.OCR1A.
  0x00000070 4f435231 42004943 52310047 49435200 OCR1B.ICR1.GICR.
  0x00000080 47494652 004d4355 4352004d 43554353 GIFR.MCUCR.MCUCS
  0x00000090 52004545 41520045 45445200 45454352 R.EEAR.EEDR.EECR
  0x000000a0 00535245 47005350 004d4355 4352004d .SREG.SP.MCUCR.M
  0x000000b0 43554353 52004f53 4343414c 00534649 CUCSR.OSCCAL.SFI
  0x000000c0 4f520054 494d534b 00544946 52005443 OR.TIMSK.TIFR.TC
  0x000000d0 43523200 54434e54 32004f43 52320041 CR2.TCNT2.OCR2.A
  0x000000e0 53535200 5346494f 52005350 44520053 SSR.SFIOR.SPDR.S
  0x000000f0 50535200 53504352 00554452 00554353 PSR.SPCR.UDR.UCS
  0x00000100 52410055 43535242 00554353 52430055 RA.UCSRB.UCSRC.U
  0x00000110 42525248 00554252 524c0054 57425200 BRRH.UBRRL.TWBR.
  0x00000120 54574352 00545753 52005457 44520054 TWCR.TWSR.TWDR.T
  0x00000130 57415200 5346494f 52004143 53520041 WAR.SFIOR.ACSR.A
  0x00000140 444d5558 00414443 53524100 41444300 DMUX.ADCSRA.ADC.
  0x00000150 5346494f 52004f43 4452004d 43554353 SFIOR.OCDR.MCUCS
  0x00000160 52005350 4d435352 00504f52 54410044 R.SPMCSR.PORTA.D
  0x00000170 44524100 50494e41 00504f52 54420044 DRA.PINA.PORTB.D
  0x00000180 44524200 50494e42 00504f52 54430044 DRB.PINB.PORTC.D
  0x00000190 44524300 50494e43 00504f52 54440044 DRC.PINC.PORTD.D
  0x000001a0 44524400 50494e44 00574454 435200   DRD.PIND.WDTCR.

